; Listing generated by Microsoft (R) Optimizing Compiler Version 19.37.32822.0 

include listing.inc

INCLUDELIB OLDNAMES

PUBLIC	??_C@_0BM@KGMLBOBG@?$FL0x1001?$FN?5Invalid?5char?5size?6@ ; `string'
PUBLIC	??_C@_0CC@DHABJMEK@Char?5size?5must?5be?58?5bits?5?$CI1?5byt@ ; `string'
PUBLIC	??_C@_0CD@ECOGEIBH@?$FL0x1002?$FN?5Invalid?5signed?5char?5si@ ; `string'
PUBLIC	??_C@_0CJ@JAAFCLND@Signed?5char?5size?5must?5be?58?5bits@ ; `string'
PUBLIC	??_C@_0CD@DDLJNGGN@?$FL0x1003?$FN?5Invalid?5signed?5char?5ty@ ; `string'
PUBLIC	??_C@_0CH@CBMKPPFF@Signed?5char?5must?5be?5signed?5?$FL?912@ ; `string'
PUBLIC	??_C@_0CI@MDNKINPF@?$FL0x1004?$FN?5Invalid?5signed?5char?5un@ ; `string'
PUBLIC	??_C@_0CH@BIFHMDH@?$FL0x1005?$FN?5Invalid?5signed?5char?5ov@ ; `string'
PUBLIC	??_C@_0CF@GCDFDJGG@?$FL0x1006?$FN?5Invalid?5unsigned?5char?5@ ; `string'
PUBLIC	??_C@_0CL@EPHIJGDG@Unsigned?5char?5size?5must?5be?58?5bi@ ; `string'
PUBLIC	??_C@_0CF@HOIKJGOJ@?$FL0x1007?$FN?5Invalid?5unsigned?5char?5@ ; `string'
PUBLIC	??_C@_0CI@OOENBJOD@Unsigned?5char?5must?5be?5unsigned?5@ ; `string'
PUBLIC	??_C@_0CK@KMMNIMNO@?$FL0x1008?$FN?5Invalid?5unsigned?5char?5@ ; `string'
PUBLIC	??_C@_0CJ@FPJPDBNK@?$FL0x1009?$FN?5Invalid?5unsigned?5char?5@ ; `string'
PUBLIC	??_C@_0BP@KDHBGFCE@?$FL0x100A?$FN?5Invalid?5wchar_t?5size?6@ ; `string'
PUBLIC	??_C@_0CL@OKCIPEGI@Wchar_t?5must?5be?5at?5least?516?5bit@ ; `string'
PUBLIC	??_C@_0BP@IEMEJECJ@?$FL0x100B?$FN?5Invalid?5wchar_t?5type?6@ ; `string'
PUBLIC	??_C@_0CC@BBCMHGJD@Wchar_t?5must?5guarantee?5?$FL0?$DL?56553@ ; `string'
PUBLIC	??_C@_0BM@OBBMBAOB@?$FL0x100C?$FN?5Invalid?5bool?5size?6@ ; `string'
PUBLIC	??_C@_0CC@IGBEKFLA@Bool?5size?5must?5be?58?5bits?5?$CI1?5byt@ ; `string'
PUBLIC	??_C@_0CC@JDCMGDBI@?$FL0x100D?$FN?5Invalid?5bool?5true?5valu@ ; `string'
PUBLIC	??_C@_0BK@HKLAFEKL@Bool?5true?5value?5must?5be?51@ ; `string'
PUBLIC	??_C@_0CD@LNAIIBAB@?$FL0x100E?$FN?5Invalid?5bool?5false?5val@ ; `string'
PUBLIC	??_C@_0BL@PJFIOMMK@Bool?5false?5value?5must?5be?50@ ; `string'
PUBLIC	??_C@_0BL@CFGGNEJK@?$FL0x100F?$FN?5Invalid?5int?5size?6@ ; `string'
PUBLIC	??_C@_0CH@GHCHMHCA@Int?5must?5be?5at?5least?516?5bits?5?$CI2@ ; `string'
PUBLIC	??_C@_0CC@CHLJABJF@?$FL0x1010?$FN?5Invalid?5signed?5int?5siz@ ; `string'
PUBLIC	??_C@_0CO@NNNLHGJA@Signed?5int?5must?5be?5at?5least?516?5@ ; `string'
PUBLIC	??_C@_0CC@DEFELLNG@?$FL0x1011?$FN?5Invalid?5signed?5int?5typ@ ; `string'
PUBLIC	??_C@_0BK@GFEAMBBK@Signed?5int?5must?5be?5signed@ ; `string'
PUBLIC	??_C@_0CE@EEFIEAP@?$FL0x1012?$FN?5Invalid?5unsigned?5int?5s@ ; `string'
PUBLIC	??_C@_0DA@IIHOIKKL@Unsigned?5int?5must?5be?5at?5least?51@ ; `string'
PUBLIC	??_C@_0CE@CKHNCAFJ@?$FL0x1013?$FN?5Invalid?5unsigned?5int?5t@ ; `string'
PUBLIC	??_C@_0BO@HNBMPJBP@Unsigned?5int?5must?5be?5unsigned@ ; `string'
PUBLIC	??_C@_0BO@OBBLLBIM@?$FL0x1014?$FN?5Invalid?5int8_t?5size?6@ ; `string'
PUBLIC	??_C@_0CE@IFLPJIFI@Int8_t?5size?5must?5be?58?5bits?5?$CI1?5b@ ; `string'
PUBLIC	??_C@_0BO@HCGGJDPF@?$FL0x1015?$FN?5Invalid?5int8_t?5type?6@ ; `string'
PUBLIC	??_C@_0CC@PIGHHMK@Int8_t?5must?5be?5signed?5?$FL?9128?$DL?512@ ; `string'
PUBLIC	??_C@_0CD@LLFGJJIM@?$FL0x1016?$FN?5Invalid?5int8_t?5underfl@ ; `string'
PUBLIC	??_C@_0CC@LNBPMKJB@?$FL0x1017?$FN?5Invalid?5int8_t?5overflo@ ; `string'
PUBLIC	??_C@_0BP@PMMNMKMK@?$FL0x1018?$FN?5Invalid?5uint8_t?5size?6@ ; `string'
PUBLIC	??_C@_0CF@NDEPOLI@Uint8_t?5size?5must?5be?58?5bits?5?$CI1?5@ ; `string'
PUBLIC	??_C@_0BP@ELBOBNJK@?$FL0x1019?$FN?5Invalid?5uint8_t?5type?6@ ; `string'
PUBLIC	??_C@_0CC@KDLBCHBA@Uint8_t?5must?5be?5unsigned?5?$FL0?$DL?525@ ; `string'
PUBLIC	??_C@_0CE@ONFPMLGI@?$FL0x101A?$FN?5Invalid?5uint8_t?5underf@ ; `string'
PUBLIC	??_C@_0CD@KDDEJLNF@?$FL0x101B?$FN?5Invalid?5uint8_t?5overfl@ ; `string'
PUBLIC	??_C@_0BP@NIPCDGPP@?$FL0x101C?$FN?5Invalid?5int16_t?5size?6@ ; `string'
PUBLIC	??_C@_0CH@EALHHOCC@Int16_t?5size?5must?5be?516?5bits?5?$CI2@ ; `string'
PUBLIC	??_C@_0BP@EPKINAJ@?$FL0x101D?$FN?5Invalid?5int16_t?5type?6@ ; `string'
PUBLIC	??_C@_0CH@EMIDCKPL@Int16_t?5must?5be?5signed?5?$FL?932768?$DL@ ; `string'
PUBLIC	??_C@_0CE@JCFABDPM@?$FL0x101E?$FN?5Invalid?5int16_t?5underf@ ; `string'
PUBLIC	??_C@_0CD@MGOBLEJJ@?$FL0x101F?$FN?5Invalid?5int16_t?5overfl@ ; `string'
PUBLIC	??_C@_0CA@DMKJAKLN@?$FL0x1020?$FN?5Invalid?5uint16_t?5size?6@ ; `string'
PUBLIC	??_C@_0CI@KAJIDIID@Uint16_t?5size?5must?5be?516?5bits?5?$CI@ ; `string'
PUBLIC	??_C@_0CA@MJOMOLHE@?$FL0x1021?$FN?5Invalid?5uint16_t?5type?6@ ; `string'
PUBLIC	??_C@_0CF@MKMEOCFE@Uint16_t?5must?5be?5unsigned?5?$FL0?$DL?56@ ; `string'
PUBLIC	??_C@_0CF@MEOIDDOH@?$FL0x1022?$FN?5Invalid?5uint16_t?5under@ ; `string'
PUBLIC	??_C@_0CE@FEGNAEMI@?$FL0x1023?$FN?5Invalid?5uint16_t?5overf@ ; `string'
PUBLIC	??_C@_0BP@OGGGMMFP@?$FL0x1024?$FN?5Invalid?5int32_t?5size?6@ ; `string'
PUBLIC	??_C@_0CH@DMHLLHCN@Int32_t?5size?5must?5be?532?5bits?5?$CI4@ ; `string'
PUBLIC	??_C@_0BP@FBLFBLAP@?$FL0x1025?$FN?5Invalid?5int32_t?5type?6@ ; `string'
PUBLIC	??_C@_0DB@CKLMHJPD@Int32_t?5must?5be?5signed?5?$FL?9214748@ ; `string'
PUBLIC	??_C@_0CE@EBPAPNNI@?$FL0x1026?$FN?5Invalid?5int32_t?5underf@ ; `string'
PUBLIC	??_C@_0CD@HGPENJLG@?$FL0x1027?$FN?5Invalid?5int32_t?5overfl@ ; `string'
PUBLIC	??_C@_0CA@DIAHDOLK@?$FL0x1028?$FN?5Invalid?5uint32_t?5size?6@ ; `string'
PUBLIC	??_C@_0CI@NMFEPBIM@Uint32_t?5size?5must?5be?532?5bits?5?$CI@ ; `string'
PUBLIC	??_C@_0CA@MNECNPHD@?$FL0x1029?$FN?5Invalid?5uint32_t?5type?6@ ; `string'
PUBLIC	??_C@_0CK@LPCOCOGL@Uint32_t?5must?5be?5unsigned?5?$FL0?$DL?54@ ; `string'
PUBLIC	??_C@_0CF@DMPGODCH@?$FL0x102A?$FN?5Invalid?5uint32_t?5under@ ; `string'
PUBLIC	??_C@_0CE@FANCGLAF@?$FL0x102B?$FN?5Invalid?5uint32_t?5overf@ ; `string'
PUBLIC	??_C@_0BP@HGLBOLJ@?$FL0x102C?$FN?5Invalid?5int64_t?5size?6@ ; `string'
PUBLIC	??_C@_0CH@PIHGGEKH@Int64_t?5size?5must?5be?564?5bits?5?$CI8@ ; `string'
PUBLIC	??_C@_0BP@NLGDKFEP@?$FL0x102D?$FN?5Invalid?5int64_t?5type?6@ ; `string'
PUBLIC	??_C@_0BI@OBIPLPLA@Int64_t?5must?5be?5signed?6@	; `string'
PUBLIC	??_C@_0CM@PFLPEJDA@?$FL?99223372036854775808?$DL?592233720@ ; `string'
PUBLIC	??_C@_0CA@DNLDHDKA@?$FL0x102E?$FN?5Invalid?5uint64_t?5size?6@ ; `string'
PUBLIC	??_C@_0CI@BIFJCCAG@Uint64_t?5size?5must?5be?564?5bits?5?$CI@ ; `string'
PUBLIC	??_C@_0CA@NNLMNJAG@?$FL0x102F?$FN?5Invalid?5uint64_t?5type?6@ ; `string'
PUBLIC	??_C@_0BL@PDGHAEAG@Uint64_t?5must?5be?5unsigned?6@ ; `string'
PUBLIC	??_C@_0BK@DCDDGIGI@?$FL0?$DL?518446744073709551615?$FN@ ; `string'
PUBLIC	??_C@_0BO@PMCHAGAD@?$FL0x1030?$FN?5Invalid?5size_t?5size?6@ ; `string'
PUBLIC	??_C@_0CK@EPAKLLIA@Size_t?5must?5be?5at?5least?564?5bits@ ; `string'
PUBLIC	??_C@_0BO@DHEEINFC@?$FL0x1032?$FN?5Invalid?5size_t?5type?6@ ; `string'
PUBLIC	??_C@_0BI@DNALILHI@Size_t?5must?5be?5unsigned@	; `string'
PUBLIC	??_C@_0BN@BFEGKPPM@?$FL0x1033?$FN?5Invalid?5float?5size?6@ ; `string'
PUBLIC	??_C@_0CF@MINJEMBP@Float?5size?5must?5be?532?5bits?5?$CI4?5b@ ; `string'
PUBLIC	??_C@_0CA@EBNIEKEP@?$FL0x1034?$FN?5Invalid?5float?5epsilon?6@ ; `string'
PUBLIC	??_C@_0CG@BJMPGMOM@Float?5minimum?5epsilon?5must?5be?52@ ; `string'
PUBLIC	??_C@_0BO@OEMENKAE@?$FL0x1035?$FN?5Invalid?5double?5size?6@ ; `string'
PUBLIC	??_C@_0CG@IGMMFPMC@Double?5size?5must?5be?564?5bits?5?$CI8?5@ ; `string'
PUBLIC	??_C@_0CB@MAKGFBIM@?$FL0x1036?$FN?5Invalid?5double?5epsilon@ ; `string'
PUBLIC	??_C@_0CH@IJPIMFPL@Double?5minimum?5epsilon?5must?5be?5@ ; `string'
PUBLIC	??_C@_0CE@KMGAGIEH@?$FL0x1037?$FN?5Invalid?5system?5endiann@ ; `string'
PUBLIC	??_C@_0BN@DPJANEIC@System?5must?5be?5little?9endian@ ; `string'
EXTRN	_Mtx_unlock:PROC
EXTRN	_Mtx_lock:PROC
EXTRN	?_Throw_Cpp_error@std@@YAXH@Z:PROC		; std::_Throw_Cpp_error
;	COMDAT ??_C@_0BN@DPJANEIC@System?5must?5be?5little?9endian@
CONST	SEGMENT
??_C@_0BN@DPJANEIC@System?5must?5be?5little?9endian@ DB 'System must be l'
	DB	'ittle-endian', 00H				; `string'
CONST	ENDS
;	COMDAT ??_C@_0CE@KMGAGIEH@?$FL0x1037?$FN?5Invalid?5system?5endiann@
CONST	SEGMENT
??_C@_0CE@KMGAGIEH@?$FL0x1037?$FN?5Invalid?5system?5endiann@ DB '[0x1037]'
	DB	' Invalid system endianness', 0aH, 00H	; `string'
CONST	ENDS
;	COMDAT ??_C@_0CH@IJPIMFPL@Double?5minimum?5epsilon?5must?5be?5@
CONST	SEGMENT
??_C@_0CH@IJPIMFPL@Double?5minimum?5epsilon?5must?5be?5@ DB 'Double minim'
	DB	'um epsilon must be 5.0e-16', 00H		; `string'
CONST	ENDS
;	COMDAT ??_C@_0CB@MAKGFBIM@?$FL0x1036?$FN?5Invalid?5double?5epsilon@
CONST	SEGMENT
??_C@_0CB@MAKGFBIM@?$FL0x1036?$FN?5Invalid?5double?5epsilon@ DB '[0x1036]'
	DB	' Invalid double epsilon', 0aH, 00H		; `string'
CONST	ENDS
;	COMDAT ??_C@_0CG@IGMMFPMC@Double?5size?5must?5be?564?5bits?5?$CI8?5@
CONST	SEGMENT
??_C@_0CG@IGMMFPMC@Double?5size?5must?5be?564?5bits?5?$CI8?5@ DB 'Double '
	DB	'size must be 64 bits (8 bytes)', 00H	; `string'
CONST	ENDS
;	COMDAT ??_C@_0BO@OEMENKAE@?$FL0x1035?$FN?5Invalid?5double?5size?6@
CONST	SEGMENT
??_C@_0BO@OEMENKAE@?$FL0x1035?$FN?5Invalid?5double?5size?6@ DB '[0x1035] '
	DB	'Invalid double size', 0aH, 00H		; `string'
CONST	ENDS
;	COMDAT ??_C@_0CG@BJMPGMOM@Float?5minimum?5epsilon?5must?5be?52@
CONST	SEGMENT
??_C@_0CG@BJMPGMOM@Float?5minimum?5epsilon?5must?5be?52@ DB 'Float minimu'
	DB	'm epsilon must be 2.5e-07', 00H		; `string'
CONST	ENDS
;	COMDAT ??_C@_0CA@EBNIEKEP@?$FL0x1034?$FN?5Invalid?5float?5epsilon?6@
CONST	SEGMENT
??_C@_0CA@EBNIEKEP@?$FL0x1034?$FN?5Invalid?5float?5epsilon?6@ DB '[0x1034'
	DB	'] Invalid float epsilon', 0aH, 00H		; `string'
CONST	ENDS
;	COMDAT ??_C@_0CF@MINJEMBP@Float?5size?5must?5be?532?5bits?5?$CI4?5b@
CONST	SEGMENT
??_C@_0CF@MINJEMBP@Float?5size?5must?5be?532?5bits?5?$CI4?5b@ DB 'Float s'
	DB	'ize must be 32 bits (4 bytes)', 00H		; `string'
CONST	ENDS
;	COMDAT ??_C@_0BN@BFEGKPPM@?$FL0x1033?$FN?5Invalid?5float?5size?6@
CONST	SEGMENT
??_C@_0BN@BFEGKPPM@?$FL0x1033?$FN?5Invalid?5float?5size?6@ DB '[0x1033] I'
	DB	'nvalid float size', 0aH, 00H		; `string'
CONST	ENDS
;	COMDAT ??_C@_0BI@DNALILHI@Size_t?5must?5be?5unsigned@
CONST	SEGMENT
??_C@_0BI@DNALILHI@Size_t?5must?5be?5unsigned@ DB 'Size_t must be unsigne'
	DB	'd', 00H					; `string'
CONST	ENDS
;	COMDAT ??_C@_0BO@DHEEINFC@?$FL0x1032?$FN?5Invalid?5size_t?5type?6@
CONST	SEGMENT
??_C@_0BO@DHEEINFC@?$FL0x1032?$FN?5Invalid?5size_t?5type?6@ DB '[0x1032] '
	DB	'Invalid size_t type', 0aH, 00H		; `string'
CONST	ENDS
;	COMDAT ??_C@_0CK@EPAKLLIA@Size_t?5must?5be?5at?5least?564?5bits@
CONST	SEGMENT
??_C@_0CK@EPAKLLIA@Size_t?5must?5be?5at?5least?564?5bits@ DB 'Size_t must'
	DB	' be at least 64 bits (8 bytes)', 00H	; `string'
CONST	ENDS
;	COMDAT ??_C@_0BO@PMCHAGAD@?$FL0x1030?$FN?5Invalid?5size_t?5size?6@
CONST	SEGMENT
??_C@_0BO@PMCHAGAD@?$FL0x1030?$FN?5Invalid?5size_t?5size?6@ DB '[0x1030] '
	DB	'Invalid size_t size', 0aH, 00H		; `string'
CONST	ENDS
;	COMDAT ??_C@_0BK@DCDDGIGI@?$FL0?$DL?518446744073709551615?$FN@
CONST	SEGMENT
??_C@_0BK@DCDDGIGI@?$FL0?$DL?518446744073709551615?$FN@ DB '[0; 184467440'
	DB	'73709551615]', 00H				; `string'
CONST	ENDS
;	COMDAT ??_C@_0BL@PDGHAEAG@Uint64_t?5must?5be?5unsigned?6@
CONST	SEGMENT
??_C@_0BL@PDGHAEAG@Uint64_t?5must?5be?5unsigned?6@ DB 'Uint64_t must be u'
	DB	'nsigned', 0aH, 00H				; `string'
CONST	ENDS
;	COMDAT ??_C@_0CA@NNLMNJAG@?$FL0x102F?$FN?5Invalid?5uint64_t?5type?6@
CONST	SEGMENT
??_C@_0CA@NNLMNJAG@?$FL0x102F?$FN?5Invalid?5uint64_t?5type?6@ DB '[0x102F'
	DB	'] Invalid uint64_t type', 0aH, 00H		; `string'
CONST	ENDS
;	COMDAT ??_C@_0CI@BIFJCCAG@Uint64_t?5size?5must?5be?564?5bits?5?$CI@
CONST	SEGMENT
??_C@_0CI@BIFJCCAG@Uint64_t?5size?5must?5be?564?5bits?5?$CI@ DB 'Uint64_t'
	DB	' size must be 64 bits (8 bytes)', 00H	; `string'
CONST	ENDS
;	COMDAT ??_C@_0CA@DNLDHDKA@?$FL0x102E?$FN?5Invalid?5uint64_t?5size?6@
CONST	SEGMENT
??_C@_0CA@DNLDHDKA@?$FL0x102E?$FN?5Invalid?5uint64_t?5size?6@ DB '[0x102E'
	DB	'] Invalid uint64_t size', 0aH, 00H		; `string'
CONST	ENDS
;	COMDAT ??_C@_0CM@PFLPEJDA@?$FL?99223372036854775808?$DL?592233720@
CONST	SEGMENT
??_C@_0CM@PFLPEJDA@?$FL?99223372036854775808?$DL?592233720@ DB '[-9223372'
	DB	'036854775808; 9223372036854775807]', 00H	; `string'
CONST	ENDS
;	COMDAT ??_C@_0BI@OBIPLPLA@Int64_t?5must?5be?5signed?6@
CONST	SEGMENT
??_C@_0BI@OBIPLPLA@Int64_t?5must?5be?5signed?6@ DB 'Int64_t must be signe'
	DB	'd', 0aH, 00H				; `string'
CONST	ENDS
;	COMDAT ??_C@_0BP@NLGDKFEP@?$FL0x102D?$FN?5Invalid?5int64_t?5type?6@
CONST	SEGMENT
??_C@_0BP@NLGDKFEP@?$FL0x102D?$FN?5Invalid?5int64_t?5type?6@ DB '[0x102D]'
	DB	' Invalid int64_t type', 0aH, 00H		; `string'
CONST	ENDS
;	COMDAT ??_C@_0CH@PIHGGEKH@Int64_t?5size?5must?5be?564?5bits?5?$CI8@
CONST	SEGMENT
??_C@_0CH@PIHGGEKH@Int64_t?5size?5must?5be?564?5bits?5?$CI8@ DB 'Int64_t '
	DB	'size must be 64 bits (8 bytes)', 00H	; `string'
CONST	ENDS
;	COMDAT ??_C@_0BP@HGLBOLJ@?$FL0x102C?$FN?5Invalid?5int64_t?5size?6@
CONST	SEGMENT
??_C@_0BP@HGLBOLJ@?$FL0x102C?$FN?5Invalid?5int64_t?5size?6@ DB '[0x102C] '
	DB	'Invalid int64_t size', 0aH, 00H		; `string'
CONST	ENDS
;	COMDAT ??_C@_0CE@FANCGLAF@?$FL0x102B?$FN?5Invalid?5uint32_t?5overf@
CONST	SEGMENT
??_C@_0CE@FANCGLAF@?$FL0x102B?$FN?5Invalid?5uint32_t?5overf@ DB '[0x102B]'
	DB	' Invalid uint32_t overflow', 0aH, 00H	; `string'
CONST	ENDS
;	COMDAT ??_C@_0CF@DMPGODCH@?$FL0x102A?$FN?5Invalid?5uint32_t?5under@
CONST	SEGMENT
??_C@_0CF@DMPGODCH@?$FL0x102A?$FN?5Invalid?5uint32_t?5under@ DB '[0x102A]'
	DB	' Invalid uint32_t underflow', 0aH, 00H	; `string'
CONST	ENDS
;	COMDAT ??_C@_0CK@LPCOCOGL@Uint32_t?5must?5be?5unsigned?5?$FL0?$DL?54@
CONST	SEGMENT
??_C@_0CK@LPCOCOGL@Uint32_t?5must?5be?5unsigned?5?$FL0?$DL?54@ DB 'Uint32'
	DB	'_t must be unsigned [0; 4294967295]', 00H	; `string'
CONST	ENDS
;	COMDAT ??_C@_0CA@MNECNPHD@?$FL0x1029?$FN?5Invalid?5uint32_t?5type?6@
CONST	SEGMENT
??_C@_0CA@MNECNPHD@?$FL0x1029?$FN?5Invalid?5uint32_t?5type?6@ DB '[0x1029'
	DB	'] Invalid uint32_t type', 0aH, 00H		; `string'
CONST	ENDS
;	COMDAT ??_C@_0CI@NMFEPBIM@Uint32_t?5size?5must?5be?532?5bits?5?$CI@
CONST	SEGMENT
??_C@_0CI@NMFEPBIM@Uint32_t?5size?5must?5be?532?5bits?5?$CI@ DB 'Uint32_t'
	DB	' size must be 32 bits (4 bytes)', 00H	; `string'
CONST	ENDS
;	COMDAT ??_C@_0CA@DIAHDOLK@?$FL0x1028?$FN?5Invalid?5uint32_t?5size?6@
CONST	SEGMENT
??_C@_0CA@DIAHDOLK@?$FL0x1028?$FN?5Invalid?5uint32_t?5size?6@ DB '[0x1028'
	DB	'] Invalid uint32_t size', 0aH, 00H		; `string'
CONST	ENDS
;	COMDAT ??_C@_0CD@HGPENJLG@?$FL0x1027?$FN?5Invalid?5int32_t?5overfl@
CONST	SEGMENT
??_C@_0CD@HGPENJLG@?$FL0x1027?$FN?5Invalid?5int32_t?5overfl@ DB '[0x1027]'
	DB	' Invalid int32_t overflow', 0aH, 00H	; `string'
CONST	ENDS
;	COMDAT ??_C@_0CE@EBPAPNNI@?$FL0x1026?$FN?5Invalid?5int32_t?5underf@
CONST	SEGMENT
??_C@_0CE@EBPAPNNI@?$FL0x1026?$FN?5Invalid?5int32_t?5underf@ DB '[0x1026]'
	DB	' Invalid int32_t underflow', 0aH, 00H	; `string'
CONST	ENDS
;	COMDAT ??_C@_0DB@CKLMHJPD@Int32_t?5must?5be?5signed?5?$FL?9214748@
CONST	SEGMENT
??_C@_0DB@CKLMHJPD@Int32_t?5must?5be?5signed?5?$FL?9214748@ DB 'Int32_t m'
	DB	'ust be signed [-2147483648; 2147483647]', 00H ; `string'
CONST	ENDS
;	COMDAT ??_C@_0BP@FBLFBLAP@?$FL0x1025?$FN?5Invalid?5int32_t?5type?6@
CONST	SEGMENT
??_C@_0BP@FBLFBLAP@?$FL0x1025?$FN?5Invalid?5int32_t?5type?6@ DB '[0x1025]'
	DB	' Invalid int32_t type', 0aH, 00H		; `string'
CONST	ENDS
;	COMDAT ??_C@_0CH@DMHLLHCN@Int32_t?5size?5must?5be?532?5bits?5?$CI4@
CONST	SEGMENT
??_C@_0CH@DMHLLHCN@Int32_t?5size?5must?5be?532?5bits?5?$CI4@ DB 'Int32_t '
	DB	'size must be 32 bits (4 bytes)', 00H	; `string'
CONST	ENDS
;	COMDAT ??_C@_0BP@OGGGMMFP@?$FL0x1024?$FN?5Invalid?5int32_t?5size?6@
CONST	SEGMENT
??_C@_0BP@OGGGMMFP@?$FL0x1024?$FN?5Invalid?5int32_t?5size?6@ DB '[0x1024]'
	DB	' Invalid int32_t size', 0aH, 00H		; `string'
CONST	ENDS
;	COMDAT ??_C@_0CE@FEGNAEMI@?$FL0x1023?$FN?5Invalid?5uint16_t?5overf@
CONST	SEGMENT
??_C@_0CE@FEGNAEMI@?$FL0x1023?$FN?5Invalid?5uint16_t?5overf@ DB '[0x1023]'
	DB	' Invalid uint16_t overflow', 0aH, 00H	; `string'
CONST	ENDS
;	COMDAT ??_C@_0CF@MEOIDDOH@?$FL0x1022?$FN?5Invalid?5uint16_t?5under@
CONST	SEGMENT
??_C@_0CF@MEOIDDOH@?$FL0x1022?$FN?5Invalid?5uint16_t?5under@ DB '[0x1022]'
	DB	' Invalid uint16_t underflow', 0aH, 00H	; `string'
CONST	ENDS
;	COMDAT ??_C@_0CF@MKMEOCFE@Uint16_t?5must?5be?5unsigned?5?$FL0?$DL?56@
CONST	SEGMENT
??_C@_0CF@MKMEOCFE@Uint16_t?5must?5be?5unsigned?5?$FL0?$DL?56@ DB 'Uint16'
	DB	'_t must be unsigned [0; 65535]', 00H	; `string'
CONST	ENDS
;	COMDAT ??_C@_0CA@MJOMOLHE@?$FL0x1021?$FN?5Invalid?5uint16_t?5type?6@
CONST	SEGMENT
??_C@_0CA@MJOMOLHE@?$FL0x1021?$FN?5Invalid?5uint16_t?5type?6@ DB '[0x1021'
	DB	'] Invalid uint16_t type', 0aH, 00H		; `string'
CONST	ENDS
;	COMDAT ??_C@_0CI@KAJIDIID@Uint16_t?5size?5must?5be?516?5bits?5?$CI@
CONST	SEGMENT
??_C@_0CI@KAJIDIID@Uint16_t?5size?5must?5be?516?5bits?5?$CI@ DB 'Uint16_t'
	DB	' size must be 16 bits (2 bytes)', 00H	; `string'
CONST	ENDS
;	COMDAT ??_C@_0CA@DMKJAKLN@?$FL0x1020?$FN?5Invalid?5uint16_t?5size?6@
CONST	SEGMENT
??_C@_0CA@DMKJAKLN@?$FL0x1020?$FN?5Invalid?5uint16_t?5size?6@ DB '[0x1020'
	DB	'] Invalid uint16_t size', 0aH, 00H		; `string'
CONST	ENDS
;	COMDAT ??_C@_0CD@MGOBLEJJ@?$FL0x101F?$FN?5Invalid?5int16_t?5overfl@
CONST	SEGMENT
??_C@_0CD@MGOBLEJJ@?$FL0x101F?$FN?5Invalid?5int16_t?5overfl@ DB '[0x101F]'
	DB	' Invalid int16_t overflow', 0aH, 00H	; `string'
CONST	ENDS
;	COMDAT ??_C@_0CE@JCFABDPM@?$FL0x101E?$FN?5Invalid?5int16_t?5underf@
CONST	SEGMENT
??_C@_0CE@JCFABDPM@?$FL0x101E?$FN?5Invalid?5int16_t?5underf@ DB '[0x101E]'
	DB	' Invalid int16_t underflow', 0aH, 00H	; `string'
CONST	ENDS
;	COMDAT ??_C@_0CH@EMIDCKPL@Int16_t?5must?5be?5signed?5?$FL?932768?$DL@
CONST	SEGMENT
??_C@_0CH@EMIDCKPL@Int16_t?5must?5be?5signed?5?$FL?932768?$DL@ DB 'Int16_'
	DB	't must be signed [-32768; 32767]', 00H	; `string'
CONST	ENDS
;	COMDAT ??_C@_0BP@EPKINAJ@?$FL0x101D?$FN?5Invalid?5int16_t?5type?6@
CONST	SEGMENT
??_C@_0BP@EPKINAJ@?$FL0x101D?$FN?5Invalid?5int16_t?5type?6@ DB '[0x101D] '
	DB	'Invalid int16_t type', 0aH, 00H		; `string'
CONST	ENDS
;	COMDAT ??_C@_0CH@EALHHOCC@Int16_t?5size?5must?5be?516?5bits?5?$CI2@
CONST	SEGMENT
??_C@_0CH@EALHHOCC@Int16_t?5size?5must?5be?516?5bits?5?$CI2@ DB 'Int16_t '
	DB	'size must be 16 bits (2 bytes)', 00H	; `string'
CONST	ENDS
;	COMDAT ??_C@_0BP@NIPCDGPP@?$FL0x101C?$FN?5Invalid?5int16_t?5size?6@
CONST	SEGMENT
??_C@_0BP@NIPCDGPP@?$FL0x101C?$FN?5Invalid?5int16_t?5size?6@ DB '[0x101C]'
	DB	' Invalid int16_t size', 0aH, 00H		; `string'
CONST	ENDS
;	COMDAT ??_C@_0CD@KDDEJLNF@?$FL0x101B?$FN?5Invalid?5uint8_t?5overfl@
CONST	SEGMENT
??_C@_0CD@KDDEJLNF@?$FL0x101B?$FN?5Invalid?5uint8_t?5overfl@ DB '[0x101B]'
	DB	' Invalid uint8_t overflow', 0aH, 00H	; `string'
CONST	ENDS
;	COMDAT ??_C@_0CE@ONFPMLGI@?$FL0x101A?$FN?5Invalid?5uint8_t?5underf@
CONST	SEGMENT
??_C@_0CE@ONFPMLGI@?$FL0x101A?$FN?5Invalid?5uint8_t?5underf@ DB '[0x101A]'
	DB	' Invalid uint8_t underflow', 0aH, 00H	; `string'
CONST	ENDS
;	COMDAT ??_C@_0CC@KDLBCHBA@Uint8_t?5must?5be?5unsigned?5?$FL0?$DL?525@
CONST	SEGMENT
??_C@_0CC@KDLBCHBA@Uint8_t?5must?5be?5unsigned?5?$FL0?$DL?525@ DB 'Uint8_'
	DB	't must be unsigned [0; 255]', 00H		; `string'
CONST	ENDS
;	COMDAT ??_C@_0BP@ELBOBNJK@?$FL0x1019?$FN?5Invalid?5uint8_t?5type?6@
CONST	SEGMENT
??_C@_0BP@ELBOBNJK@?$FL0x1019?$FN?5Invalid?5uint8_t?5type?6@ DB '[0x1019]'
	DB	' Invalid uint8_t type', 0aH, 00H		; `string'
CONST	ENDS
;	COMDAT ??_C@_0CF@NDEPOLI@Uint8_t?5size?5must?5be?58?5bits?5?$CI1?5@
CONST	SEGMENT
??_C@_0CF@NDEPOLI@Uint8_t?5size?5must?5be?58?5bits?5?$CI1?5@ DB 'Uint8_t '
	DB	'size must be 8 bits (1 byte)', 00H		; `string'
CONST	ENDS
;	COMDAT ??_C@_0BP@PMMNMKMK@?$FL0x1018?$FN?5Invalid?5uint8_t?5size?6@
CONST	SEGMENT
??_C@_0BP@PMMNMKMK@?$FL0x1018?$FN?5Invalid?5uint8_t?5size?6@ DB '[0x1018]'
	DB	' Invalid uint8_t size', 0aH, 00H		; `string'
CONST	ENDS
;	COMDAT ??_C@_0CC@LNBPMKJB@?$FL0x1017?$FN?5Invalid?5int8_t?5overflo@
CONST	SEGMENT
??_C@_0CC@LNBPMKJB@?$FL0x1017?$FN?5Invalid?5int8_t?5overflo@ DB '[0x1017]'
	DB	' Invalid int8_t overflow', 0aH, 00H		; `string'
CONST	ENDS
;	COMDAT ??_C@_0CD@LLFGJJIM@?$FL0x1016?$FN?5Invalid?5int8_t?5underfl@
CONST	SEGMENT
??_C@_0CD@LLFGJJIM@?$FL0x1016?$FN?5Invalid?5int8_t?5underfl@ DB '[0x1016]'
	DB	' Invalid int8_t underflow', 0aH, 00H	; `string'
CONST	ENDS
;	COMDAT ??_C@_0CC@PIGHHMK@Int8_t?5must?5be?5signed?5?$FL?9128?$DL?512@
CONST	SEGMENT
??_C@_0CC@PIGHHMK@Int8_t?5must?5be?5signed?5?$FL?9128?$DL?512@ DB 'Int8_t'
	DB	' must be signed [-128; 127]', 00H		; `string'
CONST	ENDS
;	COMDAT ??_C@_0BO@HCGGJDPF@?$FL0x1015?$FN?5Invalid?5int8_t?5type?6@
CONST	SEGMENT
??_C@_0BO@HCGGJDPF@?$FL0x1015?$FN?5Invalid?5int8_t?5type?6@ DB '[0x1015] '
	DB	'Invalid int8_t type', 0aH, 00H		; `string'
CONST	ENDS
;	COMDAT ??_C@_0CE@IFLPJIFI@Int8_t?5size?5must?5be?58?5bits?5?$CI1?5b@
CONST	SEGMENT
??_C@_0CE@IFLPJIFI@Int8_t?5size?5must?5be?58?5bits?5?$CI1?5b@ DB 'Int8_t '
	DB	'size must be 8 bits (1 byte)', 00H		; `string'
CONST	ENDS
;	COMDAT ??_C@_0BO@OBBLLBIM@?$FL0x1014?$FN?5Invalid?5int8_t?5size?6@
CONST	SEGMENT
??_C@_0BO@OBBLLBIM@?$FL0x1014?$FN?5Invalid?5int8_t?5size?6@ DB '[0x1014] '
	DB	'Invalid int8_t size', 0aH, 00H		; `string'
CONST	ENDS
;	COMDAT ??_C@_0BO@HNBMPJBP@Unsigned?5int?5must?5be?5unsigned@
CONST	SEGMENT
??_C@_0BO@HNBMPJBP@Unsigned?5int?5must?5be?5unsigned@ DB 'Unsigned int mu'
	DB	'st be unsigned', 00H			; `string'
CONST	ENDS
;	COMDAT ??_C@_0CE@CKHNCAFJ@?$FL0x1013?$FN?5Invalid?5unsigned?5int?5t@
CONST	SEGMENT
??_C@_0CE@CKHNCAFJ@?$FL0x1013?$FN?5Invalid?5unsigned?5int?5t@ DB '[0x1013'
	DB	'] Invalid unsigned int type', 0aH, 00H	; `string'
CONST	ENDS
;	COMDAT ??_C@_0DA@IIHOIKKL@Unsigned?5int?5must?5be?5at?5least?51@
CONST	SEGMENT
??_C@_0DA@IIHOIKKL@Unsigned?5int?5must?5be?5at?5least?51@ DB 'Unsigned in'
	DB	't must be at least 16 bits (2 bytes)', 00H	; `string'
CONST	ENDS
;	COMDAT ??_C@_0CE@EEFIEAP@?$FL0x1012?$FN?5Invalid?5unsigned?5int?5s@
CONST	SEGMENT
??_C@_0CE@EEFIEAP@?$FL0x1012?$FN?5Invalid?5unsigned?5int?5s@ DB '[0x1012]'
	DB	' Invalid unsigned int size', 0aH, 00H	; `string'
CONST	ENDS
;	COMDAT ??_C@_0BK@GFEAMBBK@Signed?5int?5must?5be?5signed@
CONST	SEGMENT
??_C@_0BK@GFEAMBBK@Signed?5int?5must?5be?5signed@ DB 'Signed int must be '
	DB	'signed', 00H				; `string'
CONST	ENDS
;	COMDAT ??_C@_0CC@DEFELLNG@?$FL0x1011?$FN?5Invalid?5signed?5int?5typ@
CONST	SEGMENT
??_C@_0CC@DEFELLNG@?$FL0x1011?$FN?5Invalid?5signed?5int?5typ@ DB '[0x1011'
	DB	'] Invalid signed int type', 0aH, 00H	; `string'
CONST	ENDS
;	COMDAT ??_C@_0CO@NNNLHGJA@Signed?5int?5must?5be?5at?5least?516?5@
CONST	SEGMENT
??_C@_0CO@NNNLHGJA@Signed?5int?5must?5be?5at?5least?516?5@ DB 'Signed int'
	DB	' must be at least 16 bits (2 bytes)', 00H	; `string'
CONST	ENDS
;	COMDAT ??_C@_0CC@CHLJABJF@?$FL0x1010?$FN?5Invalid?5signed?5int?5siz@
CONST	SEGMENT
??_C@_0CC@CHLJABJF@?$FL0x1010?$FN?5Invalid?5signed?5int?5siz@ DB '[0x1010'
	DB	'] Invalid signed int size', 0aH, 00H	; `string'
CONST	ENDS
;	COMDAT ??_C@_0CH@GHCHMHCA@Int?5must?5be?5at?5least?516?5bits?5?$CI2@
CONST	SEGMENT
??_C@_0CH@GHCHMHCA@Int?5must?5be?5at?5least?516?5bits?5?$CI2@ DB 'Int mus'
	DB	't be at least 16 bits (2 bytes)', 00H	; `string'
CONST	ENDS
;	COMDAT ??_C@_0BL@CFGGNEJK@?$FL0x100F?$FN?5Invalid?5int?5size?6@
CONST	SEGMENT
??_C@_0BL@CFGGNEJK@?$FL0x100F?$FN?5Invalid?5int?5size?6@ DB '[0x100F] Inv'
	DB	'alid int size', 0aH, 00H			; `string'
CONST	ENDS
;	COMDAT ??_C@_0BL@PJFIOMMK@Bool?5false?5value?5must?5be?50@
CONST	SEGMENT
??_C@_0BL@PJFIOMMK@Bool?5false?5value?5must?5be?50@ DB 'Bool false value '
	DB	'must be 0', 00H				; `string'
CONST	ENDS
;	COMDAT ??_C@_0CD@LNAIIBAB@?$FL0x100E?$FN?5Invalid?5bool?5false?5val@
CONST	SEGMENT
??_C@_0CD@LNAIIBAB@?$FL0x100E?$FN?5Invalid?5bool?5false?5val@ DB '[0x100E'
	DB	'] Invalid bool false value', 0aH, 00H	; `string'
CONST	ENDS
;	COMDAT ??_C@_0BK@HKLAFEKL@Bool?5true?5value?5must?5be?51@
CONST	SEGMENT
??_C@_0BK@HKLAFEKL@Bool?5true?5value?5must?5be?51@ DB 'Bool true value mu'
	DB	'st be 1', 00H				; `string'
CONST	ENDS
;	COMDAT ??_C@_0CC@JDCMGDBI@?$FL0x100D?$FN?5Invalid?5bool?5true?5valu@
CONST	SEGMENT
??_C@_0CC@JDCMGDBI@?$FL0x100D?$FN?5Invalid?5bool?5true?5valu@ DB '[0x100D'
	DB	'] Invalid bool true value', 0aH, 00H	; `string'
CONST	ENDS
;	COMDAT ??_C@_0CC@IGBEKFLA@Bool?5size?5must?5be?58?5bits?5?$CI1?5byt@
CONST	SEGMENT
??_C@_0CC@IGBEKFLA@Bool?5size?5must?5be?58?5bits?5?$CI1?5byt@ DB 'Bool si'
	DB	'ze must be 8 bits (1 byte)', 00H		; `string'
CONST	ENDS
;	COMDAT ??_C@_0BM@OBBMBAOB@?$FL0x100C?$FN?5Invalid?5bool?5size?6@
CONST	SEGMENT
??_C@_0BM@OBBMBAOB@?$FL0x100C?$FN?5Invalid?5bool?5size?6@ DB '[0x100C] In'
	DB	'valid bool size', 0aH, 00H			; `string'
CONST	ENDS
;	COMDAT ??_C@_0CC@BBCMHGJD@Wchar_t?5must?5guarantee?5?$FL0?$DL?56553@
CONST	SEGMENT
??_C@_0CC@BBCMHGJD@Wchar_t?5must?5guarantee?5?$FL0?$DL?56553@ DB 'Wchar_t'
	DB	' must guarantee [0; 65535]', 00H		; `string'
CONST	ENDS
;	COMDAT ??_C@_0BP@IEMEJECJ@?$FL0x100B?$FN?5Invalid?5wchar_t?5type?6@
CONST	SEGMENT
??_C@_0BP@IEMEJECJ@?$FL0x100B?$FN?5Invalid?5wchar_t?5type?6@ DB '[0x100B]'
	DB	' Invalid wchar_t type', 0aH, 00H		; `string'
CONST	ENDS
;	COMDAT ??_C@_0CL@OKCIPEGI@Wchar_t?5must?5be?5at?5least?516?5bit@
CONST	SEGMENT
??_C@_0CL@OKCIPEGI@Wchar_t?5must?5be?5at?5least?516?5bit@ DB 'Wchar_t mus'
	DB	't be at least 16 bits (2 bytes)', 00H	; `string'
CONST	ENDS
;	COMDAT ??_C@_0BP@KDHBGFCE@?$FL0x100A?$FN?5Invalid?5wchar_t?5size?6@
CONST	SEGMENT
??_C@_0BP@KDHBGFCE@?$FL0x100A?$FN?5Invalid?5wchar_t?5size?6@ DB '[0x100A]'
	DB	' Invalid wchar_t size', 0aH, 00H		; `string'
CONST	ENDS
;	COMDAT ??_C@_0CJ@FPJPDBNK@?$FL0x1009?$FN?5Invalid?5unsigned?5char?5@
CONST	SEGMENT
??_C@_0CJ@FPJPDBNK@?$FL0x1009?$FN?5Invalid?5unsigned?5char?5@ DB '[0x1009'
	DB	'] Invalid unsigned char overflow', 0aH, 00H	; `string'
CONST	ENDS
;	COMDAT ??_C@_0CK@KMMNIMNO@?$FL0x1008?$FN?5Invalid?5unsigned?5char?5@
CONST	SEGMENT
??_C@_0CK@KMMNIMNO@?$FL0x1008?$FN?5Invalid?5unsigned?5char?5@ DB '[0x1008'
	DB	'] Invalid unsigned char underflow', 0aH, 00H ; `string'
CONST	ENDS
;	COMDAT ??_C@_0CI@OOENBJOD@Unsigned?5char?5must?5be?5unsigned?5@
CONST	SEGMENT
??_C@_0CI@OOENBJOD@Unsigned?5char?5must?5be?5unsigned?5@ DB 'Unsigned cha'
	DB	'r must be unsigned [0; 255]', 00H		; `string'
CONST	ENDS
;	COMDAT ??_C@_0CF@HOIKJGOJ@?$FL0x1007?$FN?5Invalid?5unsigned?5char?5@
CONST	SEGMENT
??_C@_0CF@HOIKJGOJ@?$FL0x1007?$FN?5Invalid?5unsigned?5char?5@ DB '[0x1007'
	DB	'] Invalid unsigned char type', 0aH, 00H	; `string'
CONST	ENDS
;	COMDAT ??_C@_0CL@EPHIJGDG@Unsigned?5char?5size?5must?5be?58?5bi@
CONST	SEGMENT
??_C@_0CL@EPHIJGDG@Unsigned?5char?5size?5must?5be?58?5bi@ DB 'Unsigned ch'
	DB	'ar size must be 8 bits (1 byte)', 00H	; `string'
CONST	ENDS
;	COMDAT ??_C@_0CF@GCDFDJGG@?$FL0x1006?$FN?5Invalid?5unsigned?5char?5@
CONST	SEGMENT
??_C@_0CF@GCDFDJGG@?$FL0x1006?$FN?5Invalid?5unsigned?5char?5@ DB '[0x1006'
	DB	'] Invalid unsigned char size', 0aH, 00H	; `string'
CONST	ENDS
;	COMDAT ??_C@_0CH@BIFHMDH@?$FL0x1005?$FN?5Invalid?5signed?5char?5ov@
CONST	SEGMENT
??_C@_0CH@BIFHMDH@?$FL0x1005?$FN?5Invalid?5signed?5char?5ov@ DB '[0x1005]'
	DB	' Invalid signed char overflow', 0aH, 00H	; `string'
CONST	ENDS
;	COMDAT ??_C@_0CI@MDNKINPF@?$FL0x1004?$FN?5Invalid?5signed?5char?5un@
CONST	SEGMENT
??_C@_0CI@MDNKINPF@?$FL0x1004?$FN?5Invalid?5signed?5char?5un@ DB '[0x1004'
	DB	'] Invalid signed char underflow', 0aH, 00H	; `string'
CONST	ENDS
;	COMDAT ??_C@_0CH@CBMKPPFF@Signed?5char?5must?5be?5signed?5?$FL?912@
CONST	SEGMENT
??_C@_0CH@CBMKPPFF@Signed?5char?5must?5be?5signed?5?$FL?912@ DB 'Signed c'
	DB	'har must be signed [-128; 127]', 00H	; `string'
CONST	ENDS
;	COMDAT ??_C@_0CD@DDLJNGGN@?$FL0x1003?$FN?5Invalid?5signed?5char?5ty@
CONST	SEGMENT
??_C@_0CD@DDLJNGGN@?$FL0x1003?$FN?5Invalid?5signed?5char?5ty@ DB '[0x1003'
	DB	'] Invalid signed char type', 0aH, 00H	; `string'
CONST	ENDS
;	COMDAT ??_C@_0CJ@JAAFCLND@Signed?5char?5size?5must?5be?58?5bits@
CONST	SEGMENT
??_C@_0CJ@JAAFCLND@Signed?5char?5size?5must?5be?58?5bits@ DB 'Signed char'
	DB	' size must be 8 bits (1 byte)', 00H		; `string'
CONST	ENDS
;	COMDAT ??_C@_0CD@ECOGEIBH@?$FL0x1002?$FN?5Invalid?5signed?5char?5si@
CONST	SEGMENT
??_C@_0CD@ECOGEIBH@?$FL0x1002?$FN?5Invalid?5signed?5char?5si@ DB '[0x1002'
	DB	'] Invalid signed char size', 0aH, 00H	; `string'
CONST	ENDS
;	COMDAT ??_C@_0CC@DHABJMEK@Char?5size?5must?5be?58?5bits?5?$CI1?5byt@
CONST	SEGMENT
??_C@_0CC@DHABJMEK@Char?5size?5must?5be?58?5bits?5?$CI1?5byt@ DB 'Char si'
	DB	'ze must be 8 bits (1 byte)', 00H		; `string'
CONST	ENDS
;	COMDAT ??_C@_0BM@KGMLBOBG@?$FL0x1001?$FN?5Invalid?5char?5size?6@
CONST	SEGMENT
??_C@_0BM@KGMLBOBG@?$FL0x1001?$FN?5Invalid?5char?5size?6@ DB '[0x1001] In'
	DB	'valid char size', 0aH, 00H			; `string'
PUBLIC	??$?6$$BY0CB@D@SysMessage@@QEAAAEAV0@AEAY0CB@$$CBD@Z ; SysMessage::operator<<<char [33]>
PUBLIC	??$?6$$BY0CG@D@SysMessage@@QEAAAEAV0@AEAY0CG@$$CBD@Z ; SysMessage::operator<<<char [38]>
PUBLIC	??$?6$$BY0BN@D@SysMessage@@QEAAAEAV0@AEAY0BN@$$CBD@Z ; SysMessage::operator<<<char [29]>
PUBLIC	??$?6$$BY0CM@D@SysMessage@@QEAAAEAV0@AEAY0CM@$$CBD@Z ; SysMessage::operator<<<char [44]>
PUBLIC	??$?6$$BY0BI@D@SysMessage@@QEAAAEAV0@AEAY0BI@$$CBD@Z ; SysMessage::operator<<<char [24]>
PUBLIC	??$?6$$BY0DB@D@SysMessage@@QEAAAEAV0@AEAY0DB@$$CBD@Z ; SysMessage::operator<<<char [49]>
PUBLIC	??$?6$$BY0CA@D@SysMessage@@QEAAAEAV0@AEAY0CA@$$CBD@Z ; SysMessage::operator<<<char [32]>
PUBLIC	??$?6$$BY0BO@D@SysMessage@@QEAAAEAV0@AEAY0BO@$$CBD@Z ; SysMessage::operator<<<char [30]>
PUBLIC	??$?6$$BY0DA@D@SysMessage@@QEAAAEAV0@AEAY0DA@$$CBD@Z ; SysMessage::operator<<<char [48]>
PUBLIC	??$?6$$BY0CE@D@SysMessage@@QEAAAEAV0@AEAY0CE@$$CBD@Z ; SysMessage::operator<<<char [36]>
PUBLIC	??$?6$$BY0CO@D@SysMessage@@QEAAAEAV0@AEAY0CO@$$CBD@Z ; SysMessage::operator<<<char [46]>
PUBLIC	??$?6$$BY0BL@D@SysMessage@@QEAAAEAV0@AEAY0BL@$$CBD@Z ; SysMessage::operator<<<char [27]>
PUBLIC	??$?6$$BY0BK@D@SysMessage@@QEAAAEAV0@AEAY0BK@$$CBD@Z ; SysMessage::operator<<<char [26]>
PUBLIC	??$?6$$BY0BP@D@SysMessage@@QEAAAEAV0@AEAY0BP@$$CBD@Z ; SysMessage::operator<<<char [31]>
PUBLIC	??$?6$$BY0CK@D@SysMessage@@QEAAAEAV0@AEAY0CK@$$CBD@Z ; SysMessage::operator<<<char [42]>
PUBLIC	??$?6$$BY0CL@D@SysMessage@@QEAAAEAV0@AEAY0CL@$$CBD@Z ; SysMessage::operator<<<char [43]>
PUBLIC	??$?6$$BY0CF@D@SysMessage@@QEAAAEAV0@AEAY0CF@$$CBD@Z ; SysMessage::operator<<<char [37]>
PUBLIC	??$?6$$BY0CI@D@SysMessage@@QEAAAEAV0@AEAY0CI@$$CBD@Z ; SysMessage::operator<<<char [40]>
PUBLIC	??$?6$$BY0CH@D@SysMessage@@QEAAAEAV0@AEAY0CH@$$CBD@Z ; SysMessage::operator<<<char [39]>
PUBLIC	??$?6$$BY0CJ@D@SysMessage@@QEAAAEAV0@AEAY0CJ@$$CBD@Z ; SysMessage::operator<<<char [41]>
PUBLIC	??$?6$$BY0CD@D@SysMessage@@QEAAAEAV0@AEAY0CD@$$CBD@Z ; SysMessage::operator<<<char [35]>
PUBLIC	??$?6$$BY0CC@D@SysMessage@@QEAAAEAV0@AEAY0CC@$$CBD@Z ; SysMessage::operator<<<char [34]>
PUBLIC	??$?6$$BY0BM@D@SysMessage@@QEAAAEAV0@AEAY0BM@$$CBD@Z ; SysMessage::operator<<<char [28]>
PUBLIC	?SysCPUCheckEndianness@@YA_NXZ			; SysCPUCheckEndianness
PUBLIC	?SysCPUCheckDouble@@YA_NXZ			; SysCPUCheckDouble
PUBLIC	?SysCPUCheckFloat@@YA_NXZ			; SysCPUCheckFloat
PUBLIC	?SysCPUCheckInt@@YA_NXZ				; SysCPUCheckInt
PUBLIC	?SysCPUCheckBool@@YA_NXZ			; SysCPUCheckBool
PUBLIC	?SysCPUCheckChar@@YA_NXZ			; SysCPUCheckChar
PUBLIC	?unlock@SysMutex@@QEAAXXZ			; SysMutex::unlock
PUBLIC	?lock@SysMutex@@QEAAXXZ				; SysMutex::lock
PUBLIC	?_Mymtx@_Mutex_base@std@@AEAAPEAU_Mtx_internal_imp_t@@XZ ; std::_Mutex_base::_Mymtx
PUBLIC	?_Verify_ownership_levels@_Mutex_base@std@@IEAA_NXZ ; std::_Mutex_base::_Verify_ownership_levels
PUBLIC	?unlock@_Mutex_base@std@@QEAAXXZ		; std::_Mutex_base::unlock
PUBLIC	?lock@_Mutex_base@std@@QEAAXXZ			; std::_Mutex_base::lock
PUBLIC	?epsilon@?$numeric_limits@N@std@@SANXZ		; std::numeric_limits<double>::epsilon
PUBLIC	?epsilon@?$numeric_limits@M@std@@SAMXZ		; std::numeric_limits<float>::epsilon
PUBLIC	?SysCPUCheck@@YA_NXZ				; SysCPUCheck
;	COMDAT pdata
pdata	SEGMENT
$pdata$??$?6$$BY0CB@D@SysMessage@@QEAAAEAV0@AEAY0CB@$$CBD@Z DD imagerel $LN25
	DD	imagerel $LN25+92
	DD	imagerel $unwind$??$?6$$BY0CB@D@SysMessage@@QEAAAEAV0@AEAY0CB@$$CBD@Z
pdata	ENDS
;	COMDAT pdata
pdata	SEGMENT
$pdata$??$?6$$BY0CG@D@SysMessage@@QEAAAEAV0@AEAY0CG@$$CBD@Z DD imagerel $LN25
	DD	imagerel $LN25+100
	DD	imagerel $unwind$??$?6$$BY0CG@D@SysMessage@@QEAAAEAV0@AEAY0CG@$$CBD@Z
pdata	ENDS
;	COMDAT pdata
pdata	SEGMENT
$pdata$??$?6$$BY0BN@D@SysMessage@@QEAAAEAV0@AEAY0BN@$$CBD@Z DD imagerel $LN25
	DD	imagerel $LN25+100
	DD	imagerel $unwind$??$?6$$BY0BN@D@SysMessage@@QEAAAEAV0@AEAY0BN@$$CBD@Z
pdata	ENDS
;	COMDAT pdata
pdata	SEGMENT
$pdata$??$?6$$BY0CM@D@SysMessage@@QEAAAEAV0@AEAY0CM@$$CBD@Z DD imagerel $LN25
	DD	imagerel $LN25+100
	DD	imagerel $unwind$??$?6$$BY0CM@D@SysMessage@@QEAAAEAV0@AEAY0CM@$$CBD@Z
pdata	ENDS
;	COMDAT pdata
pdata	SEGMENT
$pdata$??$?6$$BY0BI@D@SysMessage@@QEAAAEAV0@AEAY0BI@$$CBD@Z DD imagerel $LN25
	DD	imagerel $LN25+100
	DD	imagerel $unwind$??$?6$$BY0BI@D@SysMessage@@QEAAAEAV0@AEAY0BI@$$CBD@Z
pdata	ENDS
;	COMDAT pdata
pdata	SEGMENT
$pdata$??$?6$$BY0DB@D@SysMessage@@QEAAAEAV0@AEAY0DB@$$CBD@Z DD imagerel $LN25
	DD	imagerel $LN25+92
	DD	imagerel $unwind$??$?6$$BY0DB@D@SysMessage@@QEAAAEAV0@AEAY0DB@$$CBD@Z
pdata	ENDS
;	COMDAT pdata
pdata	SEGMENT
$pdata$??$?6$$BY0CA@D@SysMessage@@QEAAAEAV0@AEAY0CA@$$CBD@Z DD imagerel $LN25
	DD	imagerel $LN25+100
	DD	imagerel $unwind$??$?6$$BY0CA@D@SysMessage@@QEAAAEAV0@AEAY0CA@$$CBD@Z
pdata	ENDS
;	COMDAT pdata
pdata	SEGMENT
$pdata$??$?6$$BY0BO@D@SysMessage@@QEAAAEAV0@AEAY0BO@$$CBD@Z DD imagerel $LN25
	DD	imagerel $LN25+100
	DD	imagerel $unwind$??$?6$$BY0BO@D@SysMessage@@QEAAAEAV0@AEAY0BO@$$CBD@Z
pdata	ENDS
;	COMDAT pdata
pdata	SEGMENT
$pdata$??$?6$$BY0DA@D@SysMessage@@QEAAAEAV0@AEAY0DA@$$CBD@Z DD imagerel $LN25
	DD	imagerel $LN25+92
	DD	imagerel $unwind$??$?6$$BY0DA@D@SysMessage@@QEAAAEAV0@AEAY0DA@$$CBD@Z
pdata	ENDS
;	COMDAT pdata
pdata	SEGMENT
$pdata$??$?6$$BY0CE@D@SysMessage@@QEAAAEAV0@AEAY0CE@$$CBD@Z DD imagerel $LN25
	DD	imagerel $LN25+100
	DD	imagerel $unwind$??$?6$$BY0CE@D@SysMessage@@QEAAAEAV0@AEAY0CE@$$CBD@Z
pdata	ENDS
;	COMDAT pdata
pdata	SEGMENT
$pdata$??$?6$$BY0CO@D@SysMessage@@QEAAAEAV0@AEAY0CO@$$CBD@Z DD imagerel $LN25
	DD	imagerel $LN25+92
	DD	imagerel $unwind$??$?6$$BY0CO@D@SysMessage@@QEAAAEAV0@AEAY0CO@$$CBD@Z
pdata	ENDS
;	COMDAT pdata
pdata	SEGMENT
$pdata$??$?6$$BY0BL@D@SysMessage@@QEAAAEAV0@AEAY0BL@$$CBD@Z DD imagerel $LN25
	DD	imagerel $LN25+100
	DD	imagerel $unwind$??$?6$$BY0BL@D@SysMessage@@QEAAAEAV0@AEAY0BL@$$CBD@Z
pdata	ENDS
;	COMDAT pdata
pdata	SEGMENT
$pdata$??$?6$$BY0BK@D@SysMessage@@QEAAAEAV0@AEAY0BK@$$CBD@Z DD imagerel $LN25
	DD	imagerel $LN25+92
	DD	imagerel $unwind$??$?6$$BY0BK@D@SysMessage@@QEAAAEAV0@AEAY0BK@$$CBD@Z
pdata	ENDS
;	COMDAT pdata
pdata	SEGMENT
$pdata$??$?6$$BY0BP@D@SysMessage@@QEAAAEAV0@AEAY0BP@$$CBD@Z DD imagerel $LN25
	DD	imagerel $LN25+100
	DD	imagerel $unwind$??$?6$$BY0BP@D@SysMessage@@QEAAAEAV0@AEAY0BP@$$CBD@Z
pdata	ENDS
;	COMDAT pdata
pdata	SEGMENT
$pdata$??$?6$$BY0CK@D@SysMessage@@QEAAAEAV0@AEAY0CK@$$CBD@Z DD imagerel $LN25
	DD	imagerel $LN25+100
	DD	imagerel $unwind$??$?6$$BY0CK@D@SysMessage@@QEAAAEAV0@AEAY0CK@$$CBD@Z
pdata	ENDS
;	COMDAT pdata
pdata	SEGMENT
$pdata$??$?6$$BY0CL@D@SysMessage@@QEAAAEAV0@AEAY0CL@$$CBD@Z DD imagerel $LN25
	DD	imagerel $LN25+100
	DD	imagerel $unwind$??$?6$$BY0CL@D@SysMessage@@QEAAAEAV0@AEAY0CL@$$CBD@Z
pdata	ENDS
;	COMDAT pdata
pdata	SEGMENT
$pdata$??$?6$$BY0CF@D@SysMessage@@QEAAAEAV0@AEAY0CF@$$CBD@Z DD imagerel $LN25
	DD	imagerel $LN25+100
	DD	imagerel $unwind$??$?6$$BY0CF@D@SysMessage@@QEAAAEAV0@AEAY0CF@$$CBD@Z
pdata	ENDS
;	COMDAT pdata
pdata	SEGMENT
$pdata$??$?6$$BY0CI@D@SysMessage@@QEAAAEAV0@AEAY0CI@$$CBD@Z DD imagerel $LN25
	DD	imagerel $LN25+100
	DD	imagerel $unwind$??$?6$$BY0CI@D@SysMessage@@QEAAAEAV0@AEAY0CI@$$CBD@Z
pdata	ENDS
;	COMDAT pdata
pdata	SEGMENT
$pdata$??$?6$$BY0CH@D@SysMessage@@QEAAAEAV0@AEAY0CH@$$CBD@Z DD imagerel $LN25
	DD	imagerel $LN25+100
	DD	imagerel $unwind$??$?6$$BY0CH@D@SysMessage@@QEAAAEAV0@AEAY0CH@$$CBD@Z
pdata	ENDS
;	COMDAT pdata
pdata	SEGMENT
$pdata$??$?6$$BY0CJ@D@SysMessage@@QEAAAEAV0@AEAY0CJ@$$CBD@Z DD imagerel $LN25
	DD	imagerel $LN25+100
	DD	imagerel $unwind$??$?6$$BY0CJ@D@SysMessage@@QEAAAEAV0@AEAY0CJ@$$CBD@Z
pdata	ENDS
;	COMDAT pdata
pdata	SEGMENT
$pdata$??$?6$$BY0CD@D@SysMessage@@QEAAAEAV0@AEAY0CD@$$CBD@Z DD imagerel $LN25
	DD	imagerel $LN25+100
	DD	imagerel $unwind$??$?6$$BY0CD@D@SysMessage@@QEAAAEAV0@AEAY0CD@$$CBD@Z
pdata	ENDS
;	COMDAT pdata
pdata	SEGMENT
$pdata$??$?6$$BY0CC@D@SysMessage@@QEAAAEAV0@AEAY0CC@$$CBD@Z DD imagerel $LN25
	DD	imagerel $LN25+100
	DD	imagerel $unwind$??$?6$$BY0CC@D@SysMessage@@QEAAAEAV0@AEAY0CC@$$CBD@Z
pdata	ENDS
;	COMDAT pdata
pdata	SEGMENT
$pdata$??$?6$$BY0BM@D@SysMessage@@QEAAAEAV0@AEAY0BM@$$CBD@Z DD imagerel $LN25
	DD	imagerel $LN25+100
	DD	imagerel $unwind$??$?6$$BY0BM@D@SysMessage@@QEAAAEAV0@AEAY0BM@$$CBD@Z
pdata	ENDS
;	COMDAT pdata
pdata	SEGMENT
$pdata$?lock@SysMutex@@QEAAXXZ DD imagerel $LN18
	DD	imagerel $LN18+61
	DD	imagerel $unwind$?lock@SysMutex@@QEAAXXZ
pdata	ENDS
;	COMDAT pdata
pdata	SEGMENT
$pdata$?lock@_Mutex_base@std@@QEAAXXZ DD imagerel $LN15
	DD	imagerel $LN15+62
	DD	imagerel $unwind$?lock@_Mutex_base@std@@QEAAXXZ
pdata	ENDS
;	COMDAT pdata
pdata	SEGMENT
$pdata$?SysCPUCheck@@YA_NXZ DD imagerel $LN10
	DD	imagerel $LN10+19
	DD	imagerel $unwind$?SysCPUCheck@@YA_NXZ
;	COMDAT xdata
xdata	SEGMENT
$unwind$?SysCPUCheck@@YA_NXZ DD 010401H
	DD	04204H
xdata	ENDS
;	COMDAT xdata
xdata	SEGMENT
$unwind$?lock@_Mutex_base@std@@QEAAXXZ DD 020601H
	DD	030023206H
xdata	ENDS
;	COMDAT xdata
xdata	SEGMENT
$unwind$?lock@SysMutex@@QEAAXXZ DD 020601H
	DD	030023206H
xdata	ENDS
;	COMDAT xdata
xdata	SEGMENT
$unwind$??$?6$$BY0BM@D@SysMessage@@QEAAAEAV0@AEAY0BM@$$CBD@Z DD 040a01H
	DD	06340aH
	DD	07006320aH
xdata	ENDS
;	COMDAT xdata
xdata	SEGMENT
$unwind$??$?6$$BY0CC@D@SysMessage@@QEAAAEAV0@AEAY0CC@$$CBD@Z DD 040a01H
	DD	06340aH
	DD	07006320aH
xdata	ENDS
;	COMDAT xdata
xdata	SEGMENT
$unwind$??$?6$$BY0CD@D@SysMessage@@QEAAAEAV0@AEAY0CD@$$CBD@Z DD 040a01H
	DD	06340aH
	DD	07006320aH
xdata	ENDS
;	COMDAT xdata
xdata	SEGMENT
$unwind$??$?6$$BY0CJ@D@SysMessage@@QEAAAEAV0@AEAY0CJ@$$CBD@Z DD 040a01H
	DD	06340aH
	DD	07006320aH
xdata	ENDS
;	COMDAT xdata
xdata	SEGMENT
$unwind$??$?6$$BY0CH@D@SysMessage@@QEAAAEAV0@AEAY0CH@$$CBD@Z DD 040a01H
	DD	06340aH
	DD	07006320aH
xdata	ENDS
;	COMDAT xdata
xdata	SEGMENT
$unwind$??$?6$$BY0CI@D@SysMessage@@QEAAAEAV0@AEAY0CI@$$CBD@Z DD 040a01H
	DD	06340aH
	DD	07006320aH
xdata	ENDS
;	COMDAT xdata
xdata	SEGMENT
$unwind$??$?6$$BY0CF@D@SysMessage@@QEAAAEAV0@AEAY0CF@$$CBD@Z DD 040a01H
	DD	06340aH
	DD	07006320aH
xdata	ENDS
;	COMDAT xdata
xdata	SEGMENT
$unwind$??$?6$$BY0CL@D@SysMessage@@QEAAAEAV0@AEAY0CL@$$CBD@Z DD 040a01H
	DD	06340aH
	DD	07006320aH
xdata	ENDS
;	COMDAT xdata
xdata	SEGMENT
$unwind$??$?6$$BY0CK@D@SysMessage@@QEAAAEAV0@AEAY0CK@$$CBD@Z DD 040a01H
	DD	06340aH
	DD	07006320aH
xdata	ENDS
;	COMDAT xdata
xdata	SEGMENT
$unwind$??$?6$$BY0BP@D@SysMessage@@QEAAAEAV0@AEAY0BP@$$CBD@Z DD 040a01H
	DD	06340aH
	DD	07006320aH
xdata	ENDS
;	COMDAT xdata
xdata	SEGMENT
$unwind$??$?6$$BY0BK@D@SysMessage@@QEAAAEAV0@AEAY0BK@$$CBD@Z DD 020601H
	DD	030023206H
xdata	ENDS
;	COMDAT xdata
xdata	SEGMENT
$unwind$??$?6$$BY0BL@D@SysMessage@@QEAAAEAV0@AEAY0BL@$$CBD@Z DD 040a01H
	DD	06340aH
	DD	07006320aH
xdata	ENDS
;	COMDAT xdata
xdata	SEGMENT
$unwind$??$?6$$BY0CO@D@SysMessage@@QEAAAEAV0@AEAY0CO@$$CBD@Z DD 020601H
	DD	030023206H
xdata	ENDS
;	COMDAT xdata
xdata	SEGMENT
$unwind$??$?6$$BY0CE@D@SysMessage@@QEAAAEAV0@AEAY0CE@$$CBD@Z DD 040a01H
	DD	06340aH
	DD	07006320aH
xdata	ENDS
;	COMDAT xdata
xdata	SEGMENT
$unwind$??$?6$$BY0DA@D@SysMessage@@QEAAAEAV0@AEAY0DA@$$CBD@Z DD 020601H
	DD	030023206H
xdata	ENDS
;	COMDAT xdata
xdata	SEGMENT
$unwind$??$?6$$BY0BO@D@SysMessage@@QEAAAEAV0@AEAY0BO@$$CBD@Z DD 040a01H
	DD	06340aH
	DD	07006320aH
xdata	ENDS
;	COMDAT xdata
xdata	SEGMENT
$unwind$??$?6$$BY0CA@D@SysMessage@@QEAAAEAV0@AEAY0CA@$$CBD@Z DD 040a01H
	DD	06340aH
	DD	07006320aH
xdata	ENDS
;	COMDAT xdata
xdata	SEGMENT
$unwind$??$?6$$BY0DB@D@SysMessage@@QEAAAEAV0@AEAY0DB@$$CBD@Z DD 020601H
	DD	030023206H
xdata	ENDS
;	COMDAT xdata
xdata	SEGMENT
$unwind$??$?6$$BY0BI@D@SysMessage@@QEAAAEAV0@AEAY0BI@$$CBD@Z DD 040a01H
	DD	06340aH
	DD	07006320aH
xdata	ENDS
;	COMDAT xdata
xdata	SEGMENT
$unwind$??$?6$$BY0CM@D@SysMessage@@QEAAAEAV0@AEAY0CM@$$CBD@Z DD 040a01H
	DD	06340aH
	DD	07006320aH
xdata	ENDS
;	COMDAT xdata
xdata	SEGMENT
$unwind$??$?6$$BY0BN@D@SysMessage@@QEAAAEAV0@AEAY0BN@$$CBD@Z DD 040a01H
	DD	06340aH
	DD	07006320aH
xdata	ENDS
;	COMDAT xdata
xdata	SEGMENT
$unwind$??$?6$$BY0CG@D@SysMessage@@QEAAAEAV0@AEAY0CG@$$CBD@Z DD 040a01H
	DD	06340aH
	DD	07006320aH
xdata	ENDS
;	COMDAT xdata
xdata	SEGMENT
$unwind$??$?6$$BY0CB@D@SysMessage@@QEAAAEAV0@AEAY0CB@$$CBD@Z DD 020601H
	DD	030023206H
; Function compile flags: /Ogtpy
;	COMDAT ?SysCPUCheck@@YA_NXZ
_TEXT	SEGMENT
?SysCPUCheck@@YA_NXZ PROC				; SysCPUCheck, COMDAT
; File D:\Dev\GitHub\vtools\netcpy\System\SysCPU.cpp
; Line 50
$LN10:
	sub	rsp, 40					; 00000028H
; Line 58
	call	?SysCPUCheckInt@@YA_NXZ			; SysCPUCheckInt
	test	al, al
	setne	al
; Line 71
	add	rsp, 40					; 00000028H
	ret	0
?SysCPUCheck@@YA_NXZ ENDP				; SysCPUCheck
_TEXT	ENDS
; Function compile flags: /Ogtpy
;	COMDAT ?epsilon@?$numeric_limits@M@std@@SAMXZ
_TEXT	SEGMENT
?epsilon@?$numeric_limits@M@std@@SAMXZ PROC		; std::numeric_limits<float>::epsilon, COMDAT
; File C:\Program Files\Microsoft Visual Studio\2022\Community\VC\Tools\MSVC\14.37.32822\include\limits
; Line 881
	movss	xmm0, DWORD PTR __real@34000000
; Line 882
	ret	0
?epsilon@?$numeric_limits@M@std@@SAMXZ ENDP		; std::numeric_limits<float>::epsilon
_TEXT	ENDS
; Function compile flags: /Ogtpy
;	COMDAT ?epsilon@?$numeric_limits@N@std@@SANXZ
_TEXT	SEGMENT
?epsilon@?$numeric_limits@N@std@@SANXZ PROC		; std::numeric_limits<double>::epsilon, COMDAT
; File C:\Program Files\Microsoft Visual Studio\2022\Community\VC\Tools\MSVC\14.37.32822\include\limits
; Line 929
	movsd	xmm0, QWORD PTR __real@3cb0000000000000
; Line 930
	ret	0
?epsilon@?$numeric_limits@N@std@@SANXZ ENDP		; std::numeric_limits<double>::epsilon
_TEXT	ENDS
; Function compile flags: /Ogtpy
;	COMDAT ?lock@_Mutex_base@std@@QEAAXXZ
_TEXT	SEGMENT
this$ = 48
?lock@_Mutex_base@std@@QEAAXXZ PROC			; std::_Mutex_base::lock, COMDAT
; File C:\Program Files\Microsoft Visual Studio\2022\Community\VC\Tools\MSVC\14.37.32822\include\mutex
; Line 75
$LN15:
	push	rbx
	sub	rsp, 32					; 00000020H
	mov	rbx, rcx
; Line 76
	call	_Mtx_lock
	test	eax, eax
	jne	SHORT $LN13@lock
; Line 106
	cmp	DWORD PTR [rbx+76], 2147483647		; 7fffffffH
	je	SHORT $LN14@lock
; Line 87
	add	rsp, 32					; 00000020H
	pop	rbx
	ret	0
$LN13@lock:
; Line 78
	mov	ecx, 5
	call	?_Throw_Cpp_error@std@@YAXH@Z		; std::_Throw_Cpp_error
	int	3
$LN14@lock:
; Line 85
	mov	ecx, 6
; Line 108
	mov	DWORD PTR [rbx+76], 2147483646		; 7ffffffeH
; Line 85
	call	?_Throw_Cpp_error@std@@YAXH@Z		; std::_Throw_Cpp_error
	int	3
$LN11@lock:
?lock@_Mutex_base@std@@QEAAXXZ ENDP			; std::_Mutex_base::lock
_TEXT	ENDS
; Function compile flags: /Ogtpy
;	COMDAT ?unlock@_Mutex_base@std@@QEAAXXZ
_TEXT	SEGMENT
this$ = 8
?unlock@_Mutex_base@std@@QEAAXXZ PROC			; std::_Mutex_base::unlock, COMDAT
; File C:\Program Files\Microsoft Visual Studio\2022\Community\VC\Tools\MSVC\14.37.32822\include\mutex
; Line 95
	jmp	_Mtx_unlock
?unlock@_Mutex_base@std@@QEAAXXZ ENDP			; std::_Mutex_base::unlock
_TEXT	ENDS
; Function compile flags: /Ogtpy
;	COMDAT ?_Verify_ownership_levels@_Mutex_base@std@@IEAA_NXZ
_TEXT	SEGMENT
this$ = 8
?_Verify_ownership_levels@_Mutex_base@std@@IEAA_NXZ PROC ; std::_Mutex_base::_Verify_ownership_levels, COMDAT
; File C:\Program Files\Microsoft Visual Studio\2022\Community\VC\Tools\MSVC\14.37.32822\include\mutex
; Line 106
	cmp	DWORD PTR [rcx+76], 2147483647		; 7fffffffH
	jne	SHORT $LN2@Verify_own
; Line 108
	mov	DWORD PTR [rcx+76], 2147483646		; 7ffffffeH
; Line 109
	xor	al, al
; Line 113
	ret	0
$LN2@Verify_own:
; Line 112
	mov	al, 1
; Line 113
	ret	0
?_Verify_ownership_levels@_Mutex_base@std@@IEAA_NXZ ENDP ; std::_Mutex_base::_Verify_ownership_levels
_TEXT	ENDS
; Function compile flags: /Ogtpy
;	COMDAT ?_Mymtx@_Mutex_base@std@@AEAAPEAU_Mtx_internal_imp_t@@XZ
_TEXT	SEGMENT
this$ = 8
?_Mymtx@_Mutex_base@std@@AEAAPEAU_Mtx_internal_imp_t@@XZ PROC ; std::_Mutex_base::_Mymtx, COMDAT
; File C:\Program Files\Microsoft Visual Studio\2022\Community\VC\Tools\MSVC\14.37.32822\include\mutex
; Line 125
	mov	rax, rcx
; Line 126
	ret	0
?_Mymtx@_Mutex_base@std@@AEAAPEAU_Mtx_internal_imp_t@@XZ ENDP ; std::_Mutex_base::_Mymtx
_TEXT	ENDS
; Function compile flags: /Ogtpy
;	COMDAT ?lock@SysMutex@@QEAAXXZ
_TEXT	SEGMENT
this$ = 48
?lock@SysMutex@@QEAAXXZ PROC				; SysMutex::lock, COMDAT
; File D:\Dev\GitHub\vtools\netcpy\System\SysMutex.h
; Line 79
$LN18:
	push	rbx
	sub	rsp, 32					; 00000020H
	mov	rbx, rcx
; File C:\Program Files\Microsoft Visual Studio\2022\Community\VC\Tools\MSVC\14.37.32822\include\mutex
; Line 76
	call	_Mtx_lock
	test	eax, eax
	jne	SHORT $LN16@lock
; Line 106
	mov	eax, DWORD PTR [rbx+76]
	cmp	eax, 2147483647				; 7fffffffH
	je	SHORT $LN17@lock
; File D:\Dev\GitHub\vtools\netcpy\System\SysMutex.h
; Line 81
	add	rsp, 32					; 00000020H
	pop	rbx
	ret	0
$LN16@lock:
; File C:\Program Files\Microsoft Visual Studio\2022\Community\VC\Tools\MSVC\14.37.32822\include\mutex
; Line 78
	mov	ecx, 5
	call	?_Throw_Cpp_error@std@@YAXH@Z		; std::_Throw_Cpp_error
	int	3
$LN17@lock:
; Line 108
	dec	eax
; Line 85
	mov	ecx, 6
; Line 108
	mov	DWORD PTR [rbx+76], eax
; Line 85
	call	?_Throw_Cpp_error@std@@YAXH@Z		; std::_Throw_Cpp_error
	int	3
$LN14@lock:
?lock@SysMutex@@QEAAXXZ ENDP				; SysMutex::lock
_TEXT	ENDS
; Function compile flags: /Ogtpy
;	COMDAT ?unlock@SysMutex@@QEAAXXZ
_TEXT	SEGMENT
this$ = 8
?unlock@SysMutex@@QEAAXXZ PROC				; SysMutex::unlock, COMDAT
; File D:\Dev\GitHub\vtools\netcpy\System\SysMutex.h
; File C:\Program Files\Microsoft Visual Studio\2022\Community\VC\Tools\MSVC\14.37.32822\include\mutex
; Line 95
	jmp	_Mtx_unlock
?unlock@SysMutex@@QEAAXXZ ENDP				; SysMutex::unlock
_TEXT	ENDS
; Function compile flags: /Ogtpy
;	COMDAT ?SysCPUCheckChar@@YA_NXZ
_TEXT	SEGMENT
?SysCPUCheckChar@@YA_NXZ PROC				; SysCPUCheckChar, COMDAT
; File D:\Dev\GitHub\vtools\netcpy\System\SysCPU.cpp
; Line 187
	mov	al, 1
; Line 188
	ret	0
?SysCPUCheckChar@@YA_NXZ ENDP				; SysCPUCheckChar
_TEXT	ENDS
; Function compile flags: /Ogtpy
;	COMDAT ?SysCPUCheckBool@@YA_NXZ
_TEXT	SEGMENT
?SysCPUCheckBool@@YA_NXZ PROC				; SysCPUCheckBool, COMDAT
; File D:\Dev\GitHub\vtools\netcpy\System\SysCPU.cpp
; Line 226
	mov	al, 1
; Line 227
	ret	0
?SysCPUCheckBool@@YA_NXZ ENDP				; SysCPUCheckBool
_TEXT	ENDS
; Function compile flags: /Ogtpy
;	COMDAT ?SysCPUCheckInt@@YA_NXZ
_TEXT	SEGMENT
?SysCPUCheckInt@@YA_NXZ PROC				; SysCPUCheckInt, COMDAT
; File D:\Dev\GitHub\vtools\netcpy\System\SysCPU.cpp
; Line 568
	mov	al, 1
; Line 569
	ret	0
?SysCPUCheckInt@@YA_NXZ ENDP				; SysCPUCheckInt
_TEXT	ENDS
; Function compile flags: /Ogtpy
;	COMDAT ?SysCPUCheckFloat@@YA_NXZ
_TEXT	SEGMENT
?SysCPUCheckFloat@@YA_NXZ PROC				; SysCPUCheckFloat, COMDAT
; File D:\Dev\GitHub\vtools\netcpy\System\SysCPU.cpp
; Line 597
	mov	al, 1
; Line 598
	ret	0
?SysCPUCheckFloat@@YA_NXZ ENDP				; SysCPUCheckFloat
_TEXT	ENDS
; Function compile flags: /Ogtpy
;	COMDAT ?SysCPUCheckDouble@@YA_NXZ
_TEXT	SEGMENT
?SysCPUCheckDouble@@YA_NXZ PROC				; SysCPUCheckDouble, COMDAT
; File D:\Dev\GitHub\vtools\netcpy\System\SysCPU.cpp
; Line 626
	mov	al, 1
; Line 627
	ret	0
?SysCPUCheckDouble@@YA_NXZ ENDP				; SysCPUCheckDouble
_TEXT	ENDS
; Function compile flags: /Ogtpy
;	COMDAT ?SysCPUCheckEndianness@@YA_NXZ
_TEXT	SEGMENT
?SysCPUCheckEndianness@@YA_NXZ PROC			; SysCPUCheckEndianness, COMDAT
; File D:\Dev\GitHub\vtools\netcpy\System\SysCPU.cpp
; Line 651
	mov	al, 1
; Line 652
	ret	0
?SysCPUCheckEndianness@@YA_NXZ ENDP			; SysCPUCheckEndianness
_TEXT	ENDS
; Function compile flags: /Ogtpy
;	COMDAT ??$?6$$BY0BM@D@SysMessage@@QEAAAEAV0@AEAY0BM@$$CBD@Z
_TEXT	SEGMENT
this$ = 48
t$ = 56
??$?6$$BY0BM@D@SysMessage@@QEAAAEAV0@AEAY0BM@$$CBD@Z PROC ; SysMessage::operator<<<char [28]>, COMDAT
; File D:\Dev\GitHub\vtools\netcpy\System\Win\SysMessage.h
; Line 81
$LN25:
	mov	QWORD PTR [rsp+8], rbx
	push	rdi
	sub	rsp, 32					; 00000020H
	mov	rdi, rdx
	mov	rbx, rcx
; File C:\Program Files\Microsoft Visual Studio\2022\Community\VC\Tools\MSVC\14.37.32822\include\mutex
; Line 76
	call	_Mtx_lock
	test	eax, eax
	jne	SHORT $LN23@operator
; Line 106
	mov	eax, DWORD PTR [rbx+76]
	cmp	eax, 2147483647				; 7fffffffH
	je	SHORT $LN24@operator
; File D:\Dev\GitHub\vtools\netcpy\System\Win\SysMessage.h
; Line 84
	lea	rcx, QWORD PTR [rbx+88]
	mov	rdx, rdi
	call	??$?6U?$char_traits@D@std@@@std@@YAAEAV?$basic_ostream@DU?$char_traits@D@std@@@0@AEAV10@PEBD@Z ; std::operator<<<std::char_traits<char> >
; File C:\Program Files\Microsoft Visual Studio\2022\Community\VC\Tools\MSVC\14.37.32822\include\mutex
; Line 95
	mov	rcx, rbx
; File D:\Dev\GitHub\vtools\netcpy\System\Win\SysMessage.h
; Line 85
	mov	BYTE PTR [rbx+80], 1
; File C:\Program Files\Microsoft Visual Studio\2022\Community\VC\Tools\MSVC\14.37.32822\include\mutex
; Line 95
	call	_Mtx_unlock
; File D:\Dev\GitHub\vtools\netcpy\System\Win\SysMessage.h
; Line 87
	mov	rax, rbx
; Line 88
	mov	rbx, QWORD PTR [rsp+48]
	add	rsp, 32					; 00000020H
	pop	rdi
	ret	0
$LN23@operator:
; File C:\Program Files\Microsoft Visual Studio\2022\Community\VC\Tools\MSVC\14.37.32822\include\mutex
; Line 78
	mov	ecx, 5
	call	?_Throw_Cpp_error@std@@YAXH@Z		; std::_Throw_Cpp_error
	int	3
$LN24@operator:
; Line 108
	dec	eax
; Line 85
	mov	ecx, 6
; Line 108
	mov	DWORD PTR [rbx+76], eax
; Line 85
	call	?_Throw_Cpp_error@std@@YAXH@Z		; std::_Throw_Cpp_error
	int	3
$LN21@operator:
??$?6$$BY0BM@D@SysMessage@@QEAAAEAV0@AEAY0BM@$$CBD@Z ENDP ; SysMessage::operator<<<char [28]>
_TEXT	ENDS
; Function compile flags: /Ogtpy
;	COMDAT ??$?6$$BY0CC@D@SysMessage@@QEAAAEAV0@AEAY0CC@$$CBD@Z
_TEXT	SEGMENT
this$ = 48
t$ = 56
??$?6$$BY0CC@D@SysMessage@@QEAAAEAV0@AEAY0CC@$$CBD@Z PROC ; SysMessage::operator<<<char [34]>, COMDAT
; File D:\Dev\GitHub\vtools\netcpy\System\Win\SysMessage.h
; Line 81
$LN25:
	mov	QWORD PTR [rsp+8], rbx
	push	rdi
	sub	rsp, 32					; 00000020H
	mov	rdi, rdx
	mov	rbx, rcx
; File C:\Program Files\Microsoft Visual Studio\2022\Community\VC\Tools\MSVC\14.37.32822\include\mutex
; Line 76
	call	_Mtx_lock
	test	eax, eax
	jne	SHORT $LN23@operator
; Line 106
	mov	eax, DWORD PTR [rbx+76]
	cmp	eax, 2147483647				; 7fffffffH
	je	SHORT $LN24@operator
; File D:\Dev\GitHub\vtools\netcpy\System\Win\SysMessage.h
; Line 84
	lea	rcx, QWORD PTR [rbx+88]
	mov	rdx, rdi
	call	??$?6U?$char_traits@D@std@@@std@@YAAEAV?$basic_ostream@DU?$char_traits@D@std@@@0@AEAV10@PEBD@Z ; std::operator<<<std::char_traits<char> >
; File C:\Program Files\Microsoft Visual Studio\2022\Community\VC\Tools\MSVC\14.37.32822\include\mutex
; Line 95
	mov	rcx, rbx
; File D:\Dev\GitHub\vtools\netcpy\System\Win\SysMessage.h
; Line 85
	mov	BYTE PTR [rbx+80], 1
; File C:\Program Files\Microsoft Visual Studio\2022\Community\VC\Tools\MSVC\14.37.32822\include\mutex
; Line 95
	call	_Mtx_unlock
; File D:\Dev\GitHub\vtools\netcpy\System\Win\SysMessage.h
; Line 87
	mov	rax, rbx
; Line 88
	mov	rbx, QWORD PTR [rsp+48]
	add	rsp, 32					; 00000020H
	pop	rdi
	ret	0
$LN23@operator:
; File C:\Program Files\Microsoft Visual Studio\2022\Community\VC\Tools\MSVC\14.37.32822\include\mutex
; Line 78
	mov	ecx, 5
	call	?_Throw_Cpp_error@std@@YAXH@Z		; std::_Throw_Cpp_error
	int	3
$LN24@operator:
; Line 108
	dec	eax
; Line 85
	mov	ecx, 6
; Line 108
	mov	DWORD PTR [rbx+76], eax
; Line 85
	call	?_Throw_Cpp_error@std@@YAXH@Z		; std::_Throw_Cpp_error
	int	3
$LN21@operator:
??$?6$$BY0CC@D@SysMessage@@QEAAAEAV0@AEAY0CC@$$CBD@Z ENDP ; SysMessage::operator<<<char [34]>
_TEXT	ENDS
; Function compile flags: /Ogtpy
;	COMDAT ??$?6$$BY0CD@D@SysMessage@@QEAAAEAV0@AEAY0CD@$$CBD@Z
_TEXT	SEGMENT
this$ = 48
t$ = 56
??$?6$$BY0CD@D@SysMessage@@QEAAAEAV0@AEAY0CD@$$CBD@Z PROC ; SysMessage::operator<<<char [35]>, COMDAT
; File D:\Dev\GitHub\vtools\netcpy\System\Win\SysMessage.h
; Line 81
$LN25:
	mov	QWORD PTR [rsp+8], rbx
	push	rdi
	sub	rsp, 32					; 00000020H
	mov	rdi, rdx
	mov	rbx, rcx
; File C:\Program Files\Microsoft Visual Studio\2022\Community\VC\Tools\MSVC\14.37.32822\include\mutex
; Line 76
	call	_Mtx_lock
	test	eax, eax
	jne	SHORT $LN23@operator
; Line 106
	mov	eax, DWORD PTR [rbx+76]
	cmp	eax, 2147483647				; 7fffffffH
	je	SHORT $LN24@operator
; File D:\Dev\GitHub\vtools\netcpy\System\Win\SysMessage.h
; Line 84
	lea	rcx, QWORD PTR [rbx+88]
	mov	rdx, rdi
	call	??$?6U?$char_traits@D@std@@@std@@YAAEAV?$basic_ostream@DU?$char_traits@D@std@@@0@AEAV10@PEBD@Z ; std::operator<<<std::char_traits<char> >
; File C:\Program Files\Microsoft Visual Studio\2022\Community\VC\Tools\MSVC\14.37.32822\include\mutex
; Line 95
	mov	rcx, rbx
; File D:\Dev\GitHub\vtools\netcpy\System\Win\SysMessage.h
; Line 85
	mov	BYTE PTR [rbx+80], 1
; File C:\Program Files\Microsoft Visual Studio\2022\Community\VC\Tools\MSVC\14.37.32822\include\mutex
; Line 95
	call	_Mtx_unlock
; File D:\Dev\GitHub\vtools\netcpy\System\Win\SysMessage.h
; Line 87
	mov	rax, rbx
; Line 88
	mov	rbx, QWORD PTR [rsp+48]
	add	rsp, 32					; 00000020H
	pop	rdi
	ret	0
$LN23@operator:
; File C:\Program Files\Microsoft Visual Studio\2022\Community\VC\Tools\MSVC\14.37.32822\include\mutex
; Line 78
	mov	ecx, 5
	call	?_Throw_Cpp_error@std@@YAXH@Z		; std::_Throw_Cpp_error
	int	3
$LN24@operator:
; Line 108
	dec	eax
; Line 85
	mov	ecx, 6
; Line 108
	mov	DWORD PTR [rbx+76], eax
; Line 85
	call	?_Throw_Cpp_error@std@@YAXH@Z		; std::_Throw_Cpp_error
	int	3
$LN21@operator:
??$?6$$BY0CD@D@SysMessage@@QEAAAEAV0@AEAY0CD@$$CBD@Z ENDP ; SysMessage::operator<<<char [35]>
_TEXT	ENDS
; Function compile flags: /Ogtpy
;	COMDAT ??$?6$$BY0CJ@D@SysMessage@@QEAAAEAV0@AEAY0CJ@$$CBD@Z
_TEXT	SEGMENT
this$ = 48
t$ = 56
??$?6$$BY0CJ@D@SysMessage@@QEAAAEAV0@AEAY0CJ@$$CBD@Z PROC ; SysMessage::operator<<<char [41]>, COMDAT
; File D:\Dev\GitHub\vtools\netcpy\System\Win\SysMessage.h
; Line 81
$LN25:
	mov	QWORD PTR [rsp+8], rbx
	push	rdi
	sub	rsp, 32					; 00000020H
	mov	rdi, rdx
	mov	rbx, rcx
; File C:\Program Files\Microsoft Visual Studio\2022\Community\VC\Tools\MSVC\14.37.32822\include\mutex
; Line 76
	call	_Mtx_lock
	test	eax, eax
	jne	SHORT $LN23@operator
; Line 106
	mov	eax, DWORD PTR [rbx+76]
	cmp	eax, 2147483647				; 7fffffffH
	je	SHORT $LN24@operator
; File D:\Dev\GitHub\vtools\netcpy\System\Win\SysMessage.h
; Line 84
	lea	rcx, QWORD PTR [rbx+88]
	mov	rdx, rdi
	call	??$?6U?$char_traits@D@std@@@std@@YAAEAV?$basic_ostream@DU?$char_traits@D@std@@@0@AEAV10@PEBD@Z ; std::operator<<<std::char_traits<char> >
; File C:\Program Files\Microsoft Visual Studio\2022\Community\VC\Tools\MSVC\14.37.32822\include\mutex
; Line 95
	mov	rcx, rbx
; File D:\Dev\GitHub\vtools\netcpy\System\Win\SysMessage.h
; Line 85
	mov	BYTE PTR [rbx+80], 1
; File C:\Program Files\Microsoft Visual Studio\2022\Community\VC\Tools\MSVC\14.37.32822\include\mutex
; Line 95
	call	_Mtx_unlock
; File D:\Dev\GitHub\vtools\netcpy\System\Win\SysMessage.h
; Line 87
	mov	rax, rbx
; Line 88
	mov	rbx, QWORD PTR [rsp+48]
	add	rsp, 32					; 00000020H
	pop	rdi
	ret	0
$LN23@operator:
; File C:\Program Files\Microsoft Visual Studio\2022\Community\VC\Tools\MSVC\14.37.32822\include\mutex
; Line 78
	mov	ecx, 5
	call	?_Throw_Cpp_error@std@@YAXH@Z		; std::_Throw_Cpp_error
	int	3
$LN24@operator:
; Line 108
	dec	eax
; Line 85
	mov	ecx, 6
; Line 108
	mov	DWORD PTR [rbx+76], eax
; Line 85
	call	?_Throw_Cpp_error@std@@YAXH@Z		; std::_Throw_Cpp_error
	int	3
$LN21@operator:
??$?6$$BY0CJ@D@SysMessage@@QEAAAEAV0@AEAY0CJ@$$CBD@Z ENDP ; SysMessage::operator<<<char [41]>
_TEXT	ENDS
; Function compile flags: /Ogtpy
;	COMDAT ??$?6$$BY0CH@D@SysMessage@@QEAAAEAV0@AEAY0CH@$$CBD@Z
_TEXT	SEGMENT
this$ = 48
t$ = 56
??$?6$$BY0CH@D@SysMessage@@QEAAAEAV0@AEAY0CH@$$CBD@Z PROC ; SysMessage::operator<<<char [39]>, COMDAT
; File D:\Dev\GitHub\vtools\netcpy\System\Win\SysMessage.h
; Line 81
$LN25:
	mov	QWORD PTR [rsp+8], rbx
	push	rdi
	sub	rsp, 32					; 00000020H
	mov	rdi, rdx
	mov	rbx, rcx
; File C:\Program Files\Microsoft Visual Studio\2022\Community\VC\Tools\MSVC\14.37.32822\include\mutex
; Line 76
	call	_Mtx_lock
	test	eax, eax
	jne	SHORT $LN23@operator
; Line 106
	mov	eax, DWORD PTR [rbx+76]
	cmp	eax, 2147483647				; 7fffffffH
	je	SHORT $LN24@operator
; File D:\Dev\GitHub\vtools\netcpy\System\Win\SysMessage.h
; Line 84
	lea	rcx, QWORD PTR [rbx+88]
	mov	rdx, rdi
	call	??$?6U?$char_traits@D@std@@@std@@YAAEAV?$basic_ostream@DU?$char_traits@D@std@@@0@AEAV10@PEBD@Z ; std::operator<<<std::char_traits<char> >
; File C:\Program Files\Microsoft Visual Studio\2022\Community\VC\Tools\MSVC\14.37.32822\include\mutex
; Line 95
	mov	rcx, rbx
; File D:\Dev\GitHub\vtools\netcpy\System\Win\SysMessage.h
; Line 85
	mov	BYTE PTR [rbx+80], 1
; File C:\Program Files\Microsoft Visual Studio\2022\Community\VC\Tools\MSVC\14.37.32822\include\mutex
; Line 95
	call	_Mtx_unlock
; File D:\Dev\GitHub\vtools\netcpy\System\Win\SysMessage.h
; Line 87
	mov	rax, rbx
; Line 88
	mov	rbx, QWORD PTR [rsp+48]
	add	rsp, 32					; 00000020H
	pop	rdi
	ret	0
$LN23@operator:
; File C:\Program Files\Microsoft Visual Studio\2022\Community\VC\Tools\MSVC\14.37.32822\include\mutex
; Line 78
	mov	ecx, 5
	call	?_Throw_Cpp_error@std@@YAXH@Z		; std::_Throw_Cpp_error
	int	3
$LN24@operator:
; Line 108
	dec	eax
; Line 85
	mov	ecx, 6
; Line 108
	mov	DWORD PTR [rbx+76], eax
; Line 85
	call	?_Throw_Cpp_error@std@@YAXH@Z		; std::_Throw_Cpp_error
	int	3
$LN21@operator:
??$?6$$BY0CH@D@SysMessage@@QEAAAEAV0@AEAY0CH@$$CBD@Z ENDP ; SysMessage::operator<<<char [39]>
_TEXT	ENDS
; Function compile flags: /Ogtpy
;	COMDAT ??$?6$$BY0CI@D@SysMessage@@QEAAAEAV0@AEAY0CI@$$CBD@Z
_TEXT	SEGMENT
this$ = 48
t$ = 56
??$?6$$BY0CI@D@SysMessage@@QEAAAEAV0@AEAY0CI@$$CBD@Z PROC ; SysMessage::operator<<<char [40]>, COMDAT
; File D:\Dev\GitHub\vtools\netcpy\System\Win\SysMessage.h
; Line 81
$LN25:
	mov	QWORD PTR [rsp+8], rbx
	push	rdi
	sub	rsp, 32					; 00000020H
	mov	rdi, rdx
	mov	rbx, rcx
; File C:\Program Files\Microsoft Visual Studio\2022\Community\VC\Tools\MSVC\14.37.32822\include\mutex
; Line 76
	call	_Mtx_lock
	test	eax, eax
	jne	SHORT $LN23@operator
; Line 106
	mov	eax, DWORD PTR [rbx+76]
	cmp	eax, 2147483647				; 7fffffffH
	je	SHORT $LN24@operator
; File D:\Dev\GitHub\vtools\netcpy\System\Win\SysMessage.h
; Line 84
	lea	rcx, QWORD PTR [rbx+88]
	mov	rdx, rdi
	call	??$?6U?$char_traits@D@std@@@std@@YAAEAV?$basic_ostream@DU?$char_traits@D@std@@@0@AEAV10@PEBD@Z ; std::operator<<<std::char_traits<char> >
; File C:\Program Files\Microsoft Visual Studio\2022\Community\VC\Tools\MSVC\14.37.32822\include\mutex
; Line 95
	mov	rcx, rbx
; File D:\Dev\GitHub\vtools\netcpy\System\Win\SysMessage.h
; Line 85
	mov	BYTE PTR [rbx+80], 1
; File C:\Program Files\Microsoft Visual Studio\2022\Community\VC\Tools\MSVC\14.37.32822\include\mutex
; Line 95
	call	_Mtx_unlock
; File D:\Dev\GitHub\vtools\netcpy\System\Win\SysMessage.h
; Line 87
	mov	rax, rbx
; Line 88
	mov	rbx, QWORD PTR [rsp+48]
	add	rsp, 32					; 00000020H
	pop	rdi
	ret	0
$LN23@operator:
; File C:\Program Files\Microsoft Visual Studio\2022\Community\VC\Tools\MSVC\14.37.32822\include\mutex
; Line 78
	mov	ecx, 5
	call	?_Throw_Cpp_error@std@@YAXH@Z		; std::_Throw_Cpp_error
	int	3
$LN24@operator:
; Line 108
	dec	eax
; Line 85
	mov	ecx, 6
; Line 108
	mov	DWORD PTR [rbx+76], eax
; Line 85
	call	?_Throw_Cpp_error@std@@YAXH@Z		; std::_Throw_Cpp_error
	int	3
$LN21@operator:
??$?6$$BY0CI@D@SysMessage@@QEAAAEAV0@AEAY0CI@$$CBD@Z ENDP ; SysMessage::operator<<<char [40]>
_TEXT	ENDS
; Function compile flags: /Ogtpy
;	COMDAT ??$?6$$BY0CF@D@SysMessage@@QEAAAEAV0@AEAY0CF@$$CBD@Z
_TEXT	SEGMENT
this$ = 48
t$ = 56
??$?6$$BY0CF@D@SysMessage@@QEAAAEAV0@AEAY0CF@$$CBD@Z PROC ; SysMessage::operator<<<char [37]>, COMDAT
; File D:\Dev\GitHub\vtools\netcpy\System\Win\SysMessage.h
; Line 81
$LN25:
	mov	QWORD PTR [rsp+8], rbx
	push	rdi
	sub	rsp, 32					; 00000020H
	mov	rdi, rdx
	mov	rbx, rcx
; File C:\Program Files\Microsoft Visual Studio\2022\Community\VC\Tools\MSVC\14.37.32822\include\mutex
; Line 76
	call	_Mtx_lock
	test	eax, eax
	jne	SHORT $LN23@operator
; Line 106
	mov	eax, DWORD PTR [rbx+76]
	cmp	eax, 2147483647				; 7fffffffH
	je	SHORT $LN24@operator
; File D:\Dev\GitHub\vtools\netcpy\System\Win\SysMessage.h
; Line 84
	lea	rcx, QWORD PTR [rbx+88]
	mov	rdx, rdi
	call	??$?6U?$char_traits@D@std@@@std@@YAAEAV?$basic_ostream@DU?$char_traits@D@std@@@0@AEAV10@PEBD@Z ; std::operator<<<std::char_traits<char> >
; File C:\Program Files\Microsoft Visual Studio\2022\Community\VC\Tools\MSVC\14.37.32822\include\mutex
; Line 95
	mov	rcx, rbx
; File D:\Dev\GitHub\vtools\netcpy\System\Win\SysMessage.h
; Line 85
	mov	BYTE PTR [rbx+80], 1
; File C:\Program Files\Microsoft Visual Studio\2022\Community\VC\Tools\MSVC\14.37.32822\include\mutex
; Line 95
	call	_Mtx_unlock
; File D:\Dev\GitHub\vtools\netcpy\System\Win\SysMessage.h
; Line 87
	mov	rax, rbx
; Line 88
	mov	rbx, QWORD PTR [rsp+48]
	add	rsp, 32					; 00000020H
	pop	rdi
	ret	0
$LN23@operator:
; File C:\Program Files\Microsoft Visual Studio\2022\Community\VC\Tools\MSVC\14.37.32822\include\mutex
; Line 78
	mov	ecx, 5
	call	?_Throw_Cpp_error@std@@YAXH@Z		; std::_Throw_Cpp_error
	int	3
$LN24@operator:
; Line 108
	dec	eax
; Line 85
	mov	ecx, 6
; Line 108
	mov	DWORD PTR [rbx+76], eax
; Line 85
	call	?_Throw_Cpp_error@std@@YAXH@Z		; std::_Throw_Cpp_error
	int	3
$LN21@operator:
??$?6$$BY0CF@D@SysMessage@@QEAAAEAV0@AEAY0CF@$$CBD@Z ENDP ; SysMessage::operator<<<char [37]>
_TEXT	ENDS
; Function compile flags: /Ogtpy
;	COMDAT ??$?6$$BY0CL@D@SysMessage@@QEAAAEAV0@AEAY0CL@$$CBD@Z
_TEXT	SEGMENT
this$ = 48
t$ = 56
??$?6$$BY0CL@D@SysMessage@@QEAAAEAV0@AEAY0CL@$$CBD@Z PROC ; SysMessage::operator<<<char [43]>, COMDAT
; File D:\Dev\GitHub\vtools\netcpy\System\Win\SysMessage.h
; Line 81
$LN25:
	mov	QWORD PTR [rsp+8], rbx
	push	rdi
	sub	rsp, 32					; 00000020H
	mov	rdi, rdx
	mov	rbx, rcx
; File C:\Program Files\Microsoft Visual Studio\2022\Community\VC\Tools\MSVC\14.37.32822\include\mutex
; Line 76
	call	_Mtx_lock
	test	eax, eax
	jne	SHORT $LN23@operator
; Line 106
	mov	eax, DWORD PTR [rbx+76]
	cmp	eax, 2147483647				; 7fffffffH
	je	SHORT $LN24@operator
; File D:\Dev\GitHub\vtools\netcpy\System\Win\SysMessage.h
; Line 84
	lea	rcx, QWORD PTR [rbx+88]
	mov	rdx, rdi
	call	??$?6U?$char_traits@D@std@@@std@@YAAEAV?$basic_ostream@DU?$char_traits@D@std@@@0@AEAV10@PEBD@Z ; std::operator<<<std::char_traits<char> >
; File C:\Program Files\Microsoft Visual Studio\2022\Community\VC\Tools\MSVC\14.37.32822\include\mutex
; Line 95
	mov	rcx, rbx
; File D:\Dev\GitHub\vtools\netcpy\System\Win\SysMessage.h
; Line 85
	mov	BYTE PTR [rbx+80], 1
; File C:\Program Files\Microsoft Visual Studio\2022\Community\VC\Tools\MSVC\14.37.32822\include\mutex
; Line 95
	call	_Mtx_unlock
; File D:\Dev\GitHub\vtools\netcpy\System\Win\SysMessage.h
; Line 87
	mov	rax, rbx
; Line 88
	mov	rbx, QWORD PTR [rsp+48]
	add	rsp, 32					; 00000020H
	pop	rdi
	ret	0
$LN23@operator:
; File C:\Program Files\Microsoft Visual Studio\2022\Community\VC\Tools\MSVC\14.37.32822\include\mutex
; Line 78
	mov	ecx, 5
	call	?_Throw_Cpp_error@std@@YAXH@Z		; std::_Throw_Cpp_error
	int	3
$LN24@operator:
; Line 108
	dec	eax
; Line 85
	mov	ecx, 6
; Line 108
	mov	DWORD PTR [rbx+76], eax
; Line 85
	call	?_Throw_Cpp_error@std@@YAXH@Z		; std::_Throw_Cpp_error
	int	3
$LN21@operator:
??$?6$$BY0CL@D@SysMessage@@QEAAAEAV0@AEAY0CL@$$CBD@Z ENDP ; SysMessage::operator<<<char [43]>
_TEXT	ENDS
; Function compile flags: /Ogtpy
;	COMDAT ??$?6$$BY0CK@D@SysMessage@@QEAAAEAV0@AEAY0CK@$$CBD@Z
_TEXT	SEGMENT
this$ = 48
t$ = 56
??$?6$$BY0CK@D@SysMessage@@QEAAAEAV0@AEAY0CK@$$CBD@Z PROC ; SysMessage::operator<<<char [42]>, COMDAT
; File D:\Dev\GitHub\vtools\netcpy\System\Win\SysMessage.h
; Line 81
$LN25:
	mov	QWORD PTR [rsp+8], rbx
	push	rdi
	sub	rsp, 32					; 00000020H
	mov	rdi, rdx
	mov	rbx, rcx
; File C:\Program Files\Microsoft Visual Studio\2022\Community\VC\Tools\MSVC\14.37.32822\include\mutex
; Line 76
	call	_Mtx_lock
	test	eax, eax
	jne	SHORT $LN23@operator
; Line 106
	mov	eax, DWORD PTR [rbx+76]
	cmp	eax, 2147483647				; 7fffffffH
	je	SHORT $LN24@operator
; File D:\Dev\GitHub\vtools\netcpy\System\Win\SysMessage.h
; Line 84
	lea	rcx, QWORD PTR [rbx+88]
	mov	rdx, rdi
	call	??$?6U?$char_traits@D@std@@@std@@YAAEAV?$basic_ostream@DU?$char_traits@D@std@@@0@AEAV10@PEBD@Z ; std::operator<<<std::char_traits<char> >
; File C:\Program Files\Microsoft Visual Studio\2022\Community\VC\Tools\MSVC\14.37.32822\include\mutex
; Line 95
	mov	rcx, rbx
; File D:\Dev\GitHub\vtools\netcpy\System\Win\SysMessage.h
; Line 85
	mov	BYTE PTR [rbx+80], 1
; File C:\Program Files\Microsoft Visual Studio\2022\Community\VC\Tools\MSVC\14.37.32822\include\mutex
; Line 95
	call	_Mtx_unlock
; File D:\Dev\GitHub\vtools\netcpy\System\Win\SysMessage.h
; Line 87
	mov	rax, rbx
; Line 88
	mov	rbx, QWORD PTR [rsp+48]
	add	rsp, 32					; 00000020H
	pop	rdi
	ret	0
$LN23@operator:
; File C:\Program Files\Microsoft Visual Studio\2022\Community\VC\Tools\MSVC\14.37.32822\include\mutex
; Line 78
	mov	ecx, 5
	call	?_Throw_Cpp_error@std@@YAXH@Z		; std::_Throw_Cpp_error
	int	3
$LN24@operator:
; Line 108
	dec	eax
; Line 85
	mov	ecx, 6
; Line 108
	mov	DWORD PTR [rbx+76], eax
; Line 85
	call	?_Throw_Cpp_error@std@@YAXH@Z		; std::_Throw_Cpp_error
	int	3
$LN21@operator:
??$?6$$BY0CK@D@SysMessage@@QEAAAEAV0@AEAY0CK@$$CBD@Z ENDP ; SysMessage::operator<<<char [42]>
_TEXT	ENDS
; Function compile flags: /Ogtpy
;	COMDAT ??$?6$$BY0BP@D@SysMessage@@QEAAAEAV0@AEAY0BP@$$CBD@Z
_TEXT	SEGMENT
this$ = 48
t$ = 56
??$?6$$BY0BP@D@SysMessage@@QEAAAEAV0@AEAY0BP@$$CBD@Z PROC ; SysMessage::operator<<<char [31]>, COMDAT
; File D:\Dev\GitHub\vtools\netcpy\System\Win\SysMessage.h
; Line 81
$LN25:
	mov	QWORD PTR [rsp+8], rbx
	push	rdi
	sub	rsp, 32					; 00000020H
	mov	rdi, rdx
	mov	rbx, rcx
; File C:\Program Files\Microsoft Visual Studio\2022\Community\VC\Tools\MSVC\14.37.32822\include\mutex
; Line 76
	call	_Mtx_lock
	test	eax, eax
	jne	SHORT $LN23@operator
; Line 106
	mov	eax, DWORD PTR [rbx+76]
	cmp	eax, 2147483647				; 7fffffffH
	je	SHORT $LN24@operator
; File D:\Dev\GitHub\vtools\netcpy\System\Win\SysMessage.h
; Line 84
	lea	rcx, QWORD PTR [rbx+88]
	mov	rdx, rdi
	call	??$?6U?$char_traits@D@std@@@std@@YAAEAV?$basic_ostream@DU?$char_traits@D@std@@@0@AEAV10@PEBD@Z ; std::operator<<<std::char_traits<char> >
; File C:\Program Files\Microsoft Visual Studio\2022\Community\VC\Tools\MSVC\14.37.32822\include\mutex
; Line 95
	mov	rcx, rbx
; File D:\Dev\GitHub\vtools\netcpy\System\Win\SysMessage.h
; Line 85
	mov	BYTE PTR [rbx+80], 1
; File C:\Program Files\Microsoft Visual Studio\2022\Community\VC\Tools\MSVC\14.37.32822\include\mutex
; Line 95
	call	_Mtx_unlock
; File D:\Dev\GitHub\vtools\netcpy\System\Win\SysMessage.h
; Line 87
	mov	rax, rbx
; Line 88
	mov	rbx, QWORD PTR [rsp+48]
	add	rsp, 32					; 00000020H
	pop	rdi
	ret	0
$LN23@operator:
; File C:\Program Files\Microsoft Visual Studio\2022\Community\VC\Tools\MSVC\14.37.32822\include\mutex
; Line 78
	mov	ecx, 5
	call	?_Throw_Cpp_error@std@@YAXH@Z		; std::_Throw_Cpp_error
	int	3
$LN24@operator:
; Line 108
	dec	eax
; Line 85
	mov	ecx, 6
; Line 108
	mov	DWORD PTR [rbx+76], eax
; Line 85
	call	?_Throw_Cpp_error@std@@YAXH@Z		; std::_Throw_Cpp_error
	int	3
$LN21@operator:
??$?6$$BY0BP@D@SysMessage@@QEAAAEAV0@AEAY0BP@$$CBD@Z ENDP ; SysMessage::operator<<<char [31]>
_TEXT	ENDS
; Function compile flags: /Ogtpy
;	COMDAT ??$?6$$BY0BK@D@SysMessage@@QEAAAEAV0@AEAY0BK@$$CBD@Z
_TEXT	SEGMENT
this$ = 48
t$dead$ = 56
??$?6$$BY0BK@D@SysMessage@@QEAAAEAV0@AEAY0BK@$$CBD@Z PROC ; SysMessage::operator<<<char [26]>, COMDAT
; File D:\Dev\GitHub\vtools\netcpy\System\Win\SysMessage.h
; Line 81
$LN25:
	push	rbx
	sub	rsp, 32					; 00000020H
	mov	rbx, rcx
; File C:\Program Files\Microsoft Visual Studio\2022\Community\VC\Tools\MSVC\14.37.32822\include\mutex
; Line 76
	call	_Mtx_lock
	test	eax, eax
	jne	SHORT $LN23@operator
; Line 106
	mov	eax, DWORD PTR [rbx+76]
	cmp	eax, 2147483647				; 7fffffffH
	je	SHORT $LN24@operator
; File D:\Dev\GitHub\vtools\netcpy\System\Win\SysMessage.h
; Line 84
	lea	rcx, QWORD PTR [rbx+88]
	lea	rdx, OFFSET FLAT:??_C@_0BK@HKLAFEKL@Bool?5true?5value?5must?5be?51@
	call	??$?6U?$char_traits@D@std@@@std@@YAAEAV?$basic_ostream@DU?$char_traits@D@std@@@0@AEAV10@PEBD@Z ; std::operator<<<std::char_traits<char> >
; File C:\Program Files\Microsoft Visual Studio\2022\Community\VC\Tools\MSVC\14.37.32822\include\mutex
; Line 95
	mov	rcx, rbx
; File D:\Dev\GitHub\vtools\netcpy\System\Win\SysMessage.h
; Line 85
	mov	BYTE PTR [rbx+80], 1
; File C:\Program Files\Microsoft Visual Studio\2022\Community\VC\Tools\MSVC\14.37.32822\include\mutex
; Line 95
	call	_Mtx_unlock
; File D:\Dev\GitHub\vtools\netcpy\System\Win\SysMessage.h
; Line 87
	mov	rax, rbx
; Line 88
	add	rsp, 32					; 00000020H
	pop	rbx
	ret	0
$LN23@operator:
; File C:\Program Files\Microsoft Visual Studio\2022\Community\VC\Tools\MSVC\14.37.32822\include\mutex
; Line 78
	mov	ecx, 5
	call	?_Throw_Cpp_error@std@@YAXH@Z		; std::_Throw_Cpp_error
	int	3
$LN24@operator:
; Line 108
	dec	eax
; Line 85
	mov	ecx, 6
; Line 108
	mov	DWORD PTR [rbx+76], eax
; Line 85
	call	?_Throw_Cpp_error@std@@YAXH@Z		; std::_Throw_Cpp_error
	int	3
$LN21@operator:
??$?6$$BY0BK@D@SysMessage@@QEAAAEAV0@AEAY0BK@$$CBD@Z ENDP ; SysMessage::operator<<<char [26]>
_TEXT	ENDS
; Function compile flags: /Ogtpy
;	COMDAT ??$?6$$BY0BL@D@SysMessage@@QEAAAEAV0@AEAY0BL@$$CBD@Z
_TEXT	SEGMENT
this$ = 48
t$ = 56
??$?6$$BY0BL@D@SysMessage@@QEAAAEAV0@AEAY0BL@$$CBD@Z PROC ; SysMessage::operator<<<char [27]>, COMDAT
; File D:\Dev\GitHub\vtools\netcpy\System\Win\SysMessage.h
; Line 81
$LN25:
	mov	QWORD PTR [rsp+8], rbx
	push	rdi
	sub	rsp, 32					; 00000020H
	mov	rdi, rdx
	mov	rbx, rcx
; File C:\Program Files\Microsoft Visual Studio\2022\Community\VC\Tools\MSVC\14.37.32822\include\mutex
; Line 76
	call	_Mtx_lock
	test	eax, eax
	jne	SHORT $LN23@operator
; Line 106
	mov	eax, DWORD PTR [rbx+76]
	cmp	eax, 2147483647				; 7fffffffH
	je	SHORT $LN24@operator
; File D:\Dev\GitHub\vtools\netcpy\System\Win\SysMessage.h
; Line 84
	lea	rcx, QWORD PTR [rbx+88]
	mov	rdx, rdi
	call	??$?6U?$char_traits@D@std@@@std@@YAAEAV?$basic_ostream@DU?$char_traits@D@std@@@0@AEAV10@PEBD@Z ; std::operator<<<std::char_traits<char> >
; File C:\Program Files\Microsoft Visual Studio\2022\Community\VC\Tools\MSVC\14.37.32822\include\mutex
; Line 95
	mov	rcx, rbx
; File D:\Dev\GitHub\vtools\netcpy\System\Win\SysMessage.h
; Line 85
	mov	BYTE PTR [rbx+80], 1
; File C:\Program Files\Microsoft Visual Studio\2022\Community\VC\Tools\MSVC\14.37.32822\include\mutex
; Line 95
	call	_Mtx_unlock
; File D:\Dev\GitHub\vtools\netcpy\System\Win\SysMessage.h
; Line 87
	mov	rax, rbx
; Line 88
	mov	rbx, QWORD PTR [rsp+48]
	add	rsp, 32					; 00000020H
	pop	rdi
	ret	0
$LN23@operator:
; File C:\Program Files\Microsoft Visual Studio\2022\Community\VC\Tools\MSVC\14.37.32822\include\mutex
; Line 78
	mov	ecx, 5
	call	?_Throw_Cpp_error@std@@YAXH@Z		; std::_Throw_Cpp_error
	int	3
$LN24@operator:
; Line 108
	dec	eax
; Line 85
	mov	ecx, 6
; Line 108
	mov	DWORD PTR [rbx+76], eax
; Line 85
	call	?_Throw_Cpp_error@std@@YAXH@Z		; std::_Throw_Cpp_error
	int	3
$LN21@operator:
??$?6$$BY0BL@D@SysMessage@@QEAAAEAV0@AEAY0BL@$$CBD@Z ENDP ; SysMessage::operator<<<char [27]>
_TEXT	ENDS
; Function compile flags: /Ogtpy
;	COMDAT ??$?6$$BY0CO@D@SysMessage@@QEAAAEAV0@AEAY0CO@$$CBD@Z
_TEXT	SEGMENT
this$ = 48
t$dead$ = 56
??$?6$$BY0CO@D@SysMessage@@QEAAAEAV0@AEAY0CO@$$CBD@Z PROC ; SysMessage::operator<<<char [46]>, COMDAT
; File D:\Dev\GitHub\vtools\netcpy\System\Win\SysMessage.h
; Line 81
$LN25:
	push	rbx
	sub	rsp, 32					; 00000020H
	mov	rbx, rcx
; File C:\Program Files\Microsoft Visual Studio\2022\Community\VC\Tools\MSVC\14.37.32822\include\mutex
; Line 76
	call	_Mtx_lock
	test	eax, eax
	jne	SHORT $LN23@operator
; Line 106
	mov	eax, DWORD PTR [rbx+76]
	cmp	eax, 2147483647				; 7fffffffH
	je	SHORT $LN24@operator
; File D:\Dev\GitHub\vtools\netcpy\System\Win\SysMessage.h
; Line 84
	lea	rcx, QWORD PTR [rbx+88]
	lea	rdx, OFFSET FLAT:??_C@_0CO@NNNLHGJA@Signed?5int?5must?5be?5at?5least?516?5@
	call	??$?6U?$char_traits@D@std@@@std@@YAAEAV?$basic_ostream@DU?$char_traits@D@std@@@0@AEAV10@PEBD@Z ; std::operator<<<std::char_traits<char> >
; File C:\Program Files\Microsoft Visual Studio\2022\Community\VC\Tools\MSVC\14.37.32822\include\mutex
; Line 95
	mov	rcx, rbx
; File D:\Dev\GitHub\vtools\netcpy\System\Win\SysMessage.h
; Line 85
	mov	BYTE PTR [rbx+80], 1
; File C:\Program Files\Microsoft Visual Studio\2022\Community\VC\Tools\MSVC\14.37.32822\include\mutex
; Line 95
	call	_Mtx_unlock
; File D:\Dev\GitHub\vtools\netcpy\System\Win\SysMessage.h
; Line 87
	mov	rax, rbx
; Line 88
	add	rsp, 32					; 00000020H
	pop	rbx
	ret	0
$LN23@operator:
; File C:\Program Files\Microsoft Visual Studio\2022\Community\VC\Tools\MSVC\14.37.32822\include\mutex
; Line 78
	mov	ecx, 5
	call	?_Throw_Cpp_error@std@@YAXH@Z		; std::_Throw_Cpp_error
	int	3
$LN24@operator:
; Line 108
	dec	eax
; Line 85
	mov	ecx, 6
; Line 108
	mov	DWORD PTR [rbx+76], eax
; Line 85
	call	?_Throw_Cpp_error@std@@YAXH@Z		; std::_Throw_Cpp_error
	int	3
$LN21@operator:
??$?6$$BY0CO@D@SysMessage@@QEAAAEAV0@AEAY0CO@$$CBD@Z ENDP ; SysMessage::operator<<<char [46]>
_TEXT	ENDS
; Function compile flags: /Ogtpy
;	COMDAT ??$?6$$BY0CE@D@SysMessage@@QEAAAEAV0@AEAY0CE@$$CBD@Z
_TEXT	SEGMENT
this$ = 48
t$ = 56
??$?6$$BY0CE@D@SysMessage@@QEAAAEAV0@AEAY0CE@$$CBD@Z PROC ; SysMessage::operator<<<char [36]>, COMDAT
; File D:\Dev\GitHub\vtools\netcpy\System\Win\SysMessage.h
; Line 81
$LN25:
	mov	QWORD PTR [rsp+8], rbx
	push	rdi
	sub	rsp, 32					; 00000020H
	mov	rdi, rdx
	mov	rbx, rcx
; File C:\Program Files\Microsoft Visual Studio\2022\Community\VC\Tools\MSVC\14.37.32822\include\mutex
; Line 76
	call	_Mtx_lock
	test	eax, eax
	jne	SHORT $LN23@operator
; Line 106
	mov	eax, DWORD PTR [rbx+76]
	cmp	eax, 2147483647				; 7fffffffH
	je	SHORT $LN24@operator
; File D:\Dev\GitHub\vtools\netcpy\System\Win\SysMessage.h
; Line 84
	lea	rcx, QWORD PTR [rbx+88]
	mov	rdx, rdi
	call	??$?6U?$char_traits@D@std@@@std@@YAAEAV?$basic_ostream@DU?$char_traits@D@std@@@0@AEAV10@PEBD@Z ; std::operator<<<std::char_traits<char> >
; File C:\Program Files\Microsoft Visual Studio\2022\Community\VC\Tools\MSVC\14.37.32822\include\mutex
; Line 95
	mov	rcx, rbx
; File D:\Dev\GitHub\vtools\netcpy\System\Win\SysMessage.h
; Line 85
	mov	BYTE PTR [rbx+80], 1
; File C:\Program Files\Microsoft Visual Studio\2022\Community\VC\Tools\MSVC\14.37.32822\include\mutex
; Line 95
	call	_Mtx_unlock
; File D:\Dev\GitHub\vtools\netcpy\System\Win\SysMessage.h
; Line 87
	mov	rax, rbx
; Line 88
	mov	rbx, QWORD PTR [rsp+48]
	add	rsp, 32					; 00000020H
	pop	rdi
	ret	0
$LN23@operator:
; File C:\Program Files\Microsoft Visual Studio\2022\Community\VC\Tools\MSVC\14.37.32822\include\mutex
; Line 78
	mov	ecx, 5
	call	?_Throw_Cpp_error@std@@YAXH@Z		; std::_Throw_Cpp_error
	int	3
$LN24@operator:
; Line 108
	dec	eax
; Line 85
	mov	ecx, 6
; Line 108
	mov	DWORD PTR [rbx+76], eax
; Line 85
	call	?_Throw_Cpp_error@std@@YAXH@Z		; std::_Throw_Cpp_error
	int	3
$LN21@operator:
??$?6$$BY0CE@D@SysMessage@@QEAAAEAV0@AEAY0CE@$$CBD@Z ENDP ; SysMessage::operator<<<char [36]>
_TEXT	ENDS
; Function compile flags: /Ogtpy
;	COMDAT ??$?6$$BY0DA@D@SysMessage@@QEAAAEAV0@AEAY0DA@$$CBD@Z
_TEXT	SEGMENT
this$ = 48
t$dead$ = 56
??$?6$$BY0DA@D@SysMessage@@QEAAAEAV0@AEAY0DA@$$CBD@Z PROC ; SysMessage::operator<<<char [48]>, COMDAT
; File D:\Dev\GitHub\vtools\netcpy\System\Win\SysMessage.h
; Line 81
$LN25:
	push	rbx
	sub	rsp, 32					; 00000020H
	mov	rbx, rcx
; File C:\Program Files\Microsoft Visual Studio\2022\Community\VC\Tools\MSVC\14.37.32822\include\mutex
; Line 76
	call	_Mtx_lock
	test	eax, eax
	jne	SHORT $LN23@operator
; Line 106
	mov	eax, DWORD PTR [rbx+76]
	cmp	eax, 2147483647				; 7fffffffH
	je	SHORT $LN24@operator
; File D:\Dev\GitHub\vtools\netcpy\System\Win\SysMessage.h
; Line 84
	lea	rcx, QWORD PTR [rbx+88]
	lea	rdx, OFFSET FLAT:??_C@_0DA@IIHOIKKL@Unsigned?5int?5must?5be?5at?5least?51@
	call	??$?6U?$char_traits@D@std@@@std@@YAAEAV?$basic_ostream@DU?$char_traits@D@std@@@0@AEAV10@PEBD@Z ; std::operator<<<std::char_traits<char> >
; File C:\Program Files\Microsoft Visual Studio\2022\Community\VC\Tools\MSVC\14.37.32822\include\mutex
; Line 95
	mov	rcx, rbx
; File D:\Dev\GitHub\vtools\netcpy\System\Win\SysMessage.h
; Line 85
	mov	BYTE PTR [rbx+80], 1
; File C:\Program Files\Microsoft Visual Studio\2022\Community\VC\Tools\MSVC\14.37.32822\include\mutex
; Line 95
	call	_Mtx_unlock
; File D:\Dev\GitHub\vtools\netcpy\System\Win\SysMessage.h
; Line 87
	mov	rax, rbx
; Line 88
	add	rsp, 32					; 00000020H
	pop	rbx
	ret	0
$LN23@operator:
; File C:\Program Files\Microsoft Visual Studio\2022\Community\VC\Tools\MSVC\14.37.32822\include\mutex
; Line 78
	mov	ecx, 5
	call	?_Throw_Cpp_error@std@@YAXH@Z		; std::_Throw_Cpp_error
	int	3
$LN24@operator:
; Line 108
	dec	eax
; Line 85
	mov	ecx, 6
; Line 108
	mov	DWORD PTR [rbx+76], eax
; Line 85
	call	?_Throw_Cpp_error@std@@YAXH@Z		; std::_Throw_Cpp_error
	int	3
$LN21@operator:
??$?6$$BY0DA@D@SysMessage@@QEAAAEAV0@AEAY0DA@$$CBD@Z ENDP ; SysMessage::operator<<<char [48]>
_TEXT	ENDS
; Function compile flags: /Ogtpy
;	COMDAT ??$?6$$BY0BO@D@SysMessage@@QEAAAEAV0@AEAY0BO@$$CBD@Z
_TEXT	SEGMENT
this$ = 48
t$ = 56
??$?6$$BY0BO@D@SysMessage@@QEAAAEAV0@AEAY0BO@$$CBD@Z PROC ; SysMessage::operator<<<char [30]>, COMDAT
; File D:\Dev\GitHub\vtools\netcpy\System\Win\SysMessage.h
; Line 81
$LN25:
	mov	QWORD PTR [rsp+8], rbx
	push	rdi
	sub	rsp, 32					; 00000020H
	mov	rdi, rdx
	mov	rbx, rcx
; File C:\Program Files\Microsoft Visual Studio\2022\Community\VC\Tools\MSVC\14.37.32822\include\mutex
; Line 76
	call	_Mtx_lock
	test	eax, eax
	jne	SHORT $LN23@operator
; Line 106
	mov	eax, DWORD PTR [rbx+76]
	cmp	eax, 2147483647				; 7fffffffH
	je	SHORT $LN24@operator
; File D:\Dev\GitHub\vtools\netcpy\System\Win\SysMessage.h
; Line 84
	lea	rcx, QWORD PTR [rbx+88]
	mov	rdx, rdi
	call	??$?6U?$char_traits@D@std@@@std@@YAAEAV?$basic_ostream@DU?$char_traits@D@std@@@0@AEAV10@PEBD@Z ; std::operator<<<std::char_traits<char> >
; File C:\Program Files\Microsoft Visual Studio\2022\Community\VC\Tools\MSVC\14.37.32822\include\mutex
; Line 95
	mov	rcx, rbx
; File D:\Dev\GitHub\vtools\netcpy\System\Win\SysMessage.h
; Line 85
	mov	BYTE PTR [rbx+80], 1
; File C:\Program Files\Microsoft Visual Studio\2022\Community\VC\Tools\MSVC\14.37.32822\include\mutex
; Line 95
	call	_Mtx_unlock
; File D:\Dev\GitHub\vtools\netcpy\System\Win\SysMessage.h
; Line 87
	mov	rax, rbx
; Line 88
	mov	rbx, QWORD PTR [rsp+48]
	add	rsp, 32					; 00000020H
	pop	rdi
	ret	0
$LN23@operator:
; File C:\Program Files\Microsoft Visual Studio\2022\Community\VC\Tools\MSVC\14.37.32822\include\mutex
; Line 78
	mov	ecx, 5
	call	?_Throw_Cpp_error@std@@YAXH@Z		; std::_Throw_Cpp_error
	int	3
$LN24@operator:
; Line 108
	dec	eax
; Line 85
	mov	ecx, 6
; Line 108
	mov	DWORD PTR [rbx+76], eax
; Line 85
	call	?_Throw_Cpp_error@std@@YAXH@Z		; std::_Throw_Cpp_error
	int	3
$LN21@operator:
??$?6$$BY0BO@D@SysMessage@@QEAAAEAV0@AEAY0BO@$$CBD@Z ENDP ; SysMessage::operator<<<char [30]>
_TEXT	ENDS
; Function compile flags: /Ogtpy
;	COMDAT ??$?6$$BY0CA@D@SysMessage@@QEAAAEAV0@AEAY0CA@$$CBD@Z
_TEXT	SEGMENT
this$ = 48
t$ = 56
??$?6$$BY0CA@D@SysMessage@@QEAAAEAV0@AEAY0CA@$$CBD@Z PROC ; SysMessage::operator<<<char [32]>, COMDAT
; File D:\Dev\GitHub\vtools\netcpy\System\Win\SysMessage.h
; Line 81
$LN25:
	mov	QWORD PTR [rsp+8], rbx
	push	rdi
	sub	rsp, 32					; 00000020H
	mov	rdi, rdx
	mov	rbx, rcx
; File C:\Program Files\Microsoft Visual Studio\2022\Community\VC\Tools\MSVC\14.37.32822\include\mutex
; Line 76
	call	_Mtx_lock
	test	eax, eax
	jne	SHORT $LN23@operator
; Line 106
	mov	eax, DWORD PTR [rbx+76]
	cmp	eax, 2147483647				; 7fffffffH
	je	SHORT $LN24@operator
; File D:\Dev\GitHub\vtools\netcpy\System\Win\SysMessage.h
; Line 84
	lea	rcx, QWORD PTR [rbx+88]
	mov	rdx, rdi
	call	??$?6U?$char_traits@D@std@@@std@@YAAEAV?$basic_ostream@DU?$char_traits@D@std@@@0@AEAV10@PEBD@Z ; std::operator<<<std::char_traits<char> >
; File C:\Program Files\Microsoft Visual Studio\2022\Community\VC\Tools\MSVC\14.37.32822\include\mutex
; Line 95
	mov	rcx, rbx
; File D:\Dev\GitHub\vtools\netcpy\System\Win\SysMessage.h
; Line 85
	mov	BYTE PTR [rbx+80], 1
; File C:\Program Files\Microsoft Visual Studio\2022\Community\VC\Tools\MSVC\14.37.32822\include\mutex
; Line 95
	call	_Mtx_unlock
; File D:\Dev\GitHub\vtools\netcpy\System\Win\SysMessage.h
; Line 87
	mov	rax, rbx
; Line 88
	mov	rbx, QWORD PTR [rsp+48]
	add	rsp, 32					; 00000020H
	pop	rdi
	ret	0
$LN23@operator:
; File C:\Program Files\Microsoft Visual Studio\2022\Community\VC\Tools\MSVC\14.37.32822\include\mutex
; Line 78
	mov	ecx, 5
	call	?_Throw_Cpp_error@std@@YAXH@Z		; std::_Throw_Cpp_error
	int	3
$LN24@operator:
; Line 108
	dec	eax
; Line 85
	mov	ecx, 6
; Line 108
	mov	DWORD PTR [rbx+76], eax
; Line 85
	call	?_Throw_Cpp_error@std@@YAXH@Z		; std::_Throw_Cpp_error
	int	3
$LN21@operator:
??$?6$$BY0CA@D@SysMessage@@QEAAAEAV0@AEAY0CA@$$CBD@Z ENDP ; SysMessage::operator<<<char [32]>
_TEXT	ENDS
; Function compile flags: /Ogtpy
;	COMDAT ??$?6$$BY0DB@D@SysMessage@@QEAAAEAV0@AEAY0DB@$$CBD@Z
_TEXT	SEGMENT
this$ = 48
t$dead$ = 56
??$?6$$BY0DB@D@SysMessage@@QEAAAEAV0@AEAY0DB@$$CBD@Z PROC ; SysMessage::operator<<<char [49]>, COMDAT
; File D:\Dev\GitHub\vtools\netcpy\System\Win\SysMessage.h
; Line 81
$LN25:
	push	rbx
	sub	rsp, 32					; 00000020H
	mov	rbx, rcx
; File C:\Program Files\Microsoft Visual Studio\2022\Community\VC\Tools\MSVC\14.37.32822\include\mutex
; Line 76
	call	_Mtx_lock
	test	eax, eax
	jne	SHORT $LN23@operator
; Line 106
	mov	eax, DWORD PTR [rbx+76]
	cmp	eax, 2147483647				; 7fffffffH
	je	SHORT $LN24@operator
; File D:\Dev\GitHub\vtools\netcpy\System\Win\SysMessage.h
; Line 84
	lea	rcx, QWORD PTR [rbx+88]
	lea	rdx, OFFSET FLAT:??_C@_0DB@CKLMHJPD@Int32_t?5must?5be?5signed?5?$FL?9214748@
	call	??$?6U?$char_traits@D@std@@@std@@YAAEAV?$basic_ostream@DU?$char_traits@D@std@@@0@AEAV10@PEBD@Z ; std::operator<<<std::char_traits<char> >
; File C:\Program Files\Microsoft Visual Studio\2022\Community\VC\Tools\MSVC\14.37.32822\include\mutex
; Line 95
	mov	rcx, rbx
; File D:\Dev\GitHub\vtools\netcpy\System\Win\SysMessage.h
; Line 85
	mov	BYTE PTR [rbx+80], 1
; File C:\Program Files\Microsoft Visual Studio\2022\Community\VC\Tools\MSVC\14.37.32822\include\mutex
; Line 95
	call	_Mtx_unlock
; File D:\Dev\GitHub\vtools\netcpy\System\Win\SysMessage.h
; Line 87
	mov	rax, rbx
; Line 88
	add	rsp, 32					; 00000020H
	pop	rbx
	ret	0
$LN23@operator:
; File C:\Program Files\Microsoft Visual Studio\2022\Community\VC\Tools\MSVC\14.37.32822\include\mutex
; Line 78
	mov	ecx, 5
	call	?_Throw_Cpp_error@std@@YAXH@Z		; std::_Throw_Cpp_error
	int	3
$LN24@operator:
; Line 108
	dec	eax
; Line 85
	mov	ecx, 6
; Line 108
	mov	DWORD PTR [rbx+76], eax
; Line 85
	call	?_Throw_Cpp_error@std@@YAXH@Z		; std::_Throw_Cpp_error
	int	3
$LN21@operator:
??$?6$$BY0DB@D@SysMessage@@QEAAAEAV0@AEAY0DB@$$CBD@Z ENDP ; SysMessage::operator<<<char [49]>
_TEXT	ENDS
; Function compile flags: /Ogtpy
;	COMDAT ??$?6$$BY0BI@D@SysMessage@@QEAAAEAV0@AEAY0BI@$$CBD@Z
_TEXT	SEGMENT
this$ = 48
t$ = 56
??$?6$$BY0BI@D@SysMessage@@QEAAAEAV0@AEAY0BI@$$CBD@Z PROC ; SysMessage::operator<<<char [24]>, COMDAT
; File D:\Dev\GitHub\vtools\netcpy\System\Win\SysMessage.h
; Line 81
$LN25:
	mov	QWORD PTR [rsp+8], rbx
	push	rdi
	sub	rsp, 32					; 00000020H
	mov	rdi, rdx
	mov	rbx, rcx
; File C:\Program Files\Microsoft Visual Studio\2022\Community\VC\Tools\MSVC\14.37.32822\include\mutex
; Line 76
	call	_Mtx_lock
	test	eax, eax
	jne	SHORT $LN23@operator
; Line 106
	mov	eax, DWORD PTR [rbx+76]
	cmp	eax, 2147483647				; 7fffffffH
	je	SHORT $LN24@operator
; File D:\Dev\GitHub\vtools\netcpy\System\Win\SysMessage.h
; Line 84
	lea	rcx, QWORD PTR [rbx+88]
	mov	rdx, rdi
	call	??$?6U?$char_traits@D@std@@@std@@YAAEAV?$basic_ostream@DU?$char_traits@D@std@@@0@AEAV10@PEBD@Z ; std::operator<<<std::char_traits<char> >
; File C:\Program Files\Microsoft Visual Studio\2022\Community\VC\Tools\MSVC\14.37.32822\include\mutex
; Line 95
	mov	rcx, rbx
; File D:\Dev\GitHub\vtools\netcpy\System\Win\SysMessage.h
; Line 85
	mov	BYTE PTR [rbx+80], 1
; File C:\Program Files\Microsoft Visual Studio\2022\Community\VC\Tools\MSVC\14.37.32822\include\mutex
; Line 95
	call	_Mtx_unlock
; File D:\Dev\GitHub\vtools\netcpy\System\Win\SysMessage.h
; Line 87
	mov	rax, rbx
; Line 88
	mov	rbx, QWORD PTR [rsp+48]
	add	rsp, 32					; 00000020H
	pop	rdi
	ret	0
$LN23@operator:
; File C:\Program Files\Microsoft Visual Studio\2022\Community\VC\Tools\MSVC\14.37.32822\include\mutex
; Line 78
	mov	ecx, 5
	call	?_Throw_Cpp_error@std@@YAXH@Z		; std::_Throw_Cpp_error
	int	3
$LN24@operator:
; Line 108
	dec	eax
; Line 85
	mov	ecx, 6
; Line 108
	mov	DWORD PTR [rbx+76], eax
; Line 85
	call	?_Throw_Cpp_error@std@@YAXH@Z		; std::_Throw_Cpp_error
	int	3
$LN21@operator:
??$?6$$BY0BI@D@SysMessage@@QEAAAEAV0@AEAY0BI@$$CBD@Z ENDP ; SysMessage::operator<<<char [24]>
_TEXT	ENDS
; Function compile flags: /Ogtpy
;	COMDAT ??$?6$$BY0CM@D@SysMessage@@QEAAAEAV0@AEAY0CM@$$CBD@Z
_TEXT	SEGMENT
this$ = 48
t$ = 56
??$?6$$BY0CM@D@SysMessage@@QEAAAEAV0@AEAY0CM@$$CBD@Z PROC ; SysMessage::operator<<<char [44]>, COMDAT
; File D:\Dev\GitHub\vtools\netcpy\System\Win\SysMessage.h
; Line 81
$LN25:
	mov	QWORD PTR [rsp+8], rbx
	push	rdi
	sub	rsp, 32					; 00000020H
	mov	rdi, rdx
	mov	rbx, rcx
; File C:\Program Files\Microsoft Visual Studio\2022\Community\VC\Tools\MSVC\14.37.32822\include\mutex
; Line 76
	call	_Mtx_lock
	test	eax, eax
	jne	SHORT $LN23@operator
; Line 106
	mov	eax, DWORD PTR [rbx+76]
	cmp	eax, 2147483647				; 7fffffffH
	je	SHORT $LN24@operator
; File D:\Dev\GitHub\vtools\netcpy\System\Win\SysMessage.h
; Line 84
	lea	rcx, QWORD PTR [rbx+88]
	mov	rdx, rdi
	call	??$?6U?$char_traits@D@std@@@std@@YAAEAV?$basic_ostream@DU?$char_traits@D@std@@@0@AEAV10@PEBD@Z ; std::operator<<<std::char_traits<char> >
; File C:\Program Files\Microsoft Visual Studio\2022\Community\VC\Tools\MSVC\14.37.32822\include\mutex
; Line 95
	mov	rcx, rbx
; File D:\Dev\GitHub\vtools\netcpy\System\Win\SysMessage.h
; Line 85
	mov	BYTE PTR [rbx+80], 1
; File C:\Program Files\Microsoft Visual Studio\2022\Community\VC\Tools\MSVC\14.37.32822\include\mutex
; Line 95
	call	_Mtx_unlock
; File D:\Dev\GitHub\vtools\netcpy\System\Win\SysMessage.h
; Line 87
	mov	rax, rbx
; Line 88
	mov	rbx, QWORD PTR [rsp+48]
	add	rsp, 32					; 00000020H
	pop	rdi
	ret	0
$LN23@operator:
; File C:\Program Files\Microsoft Visual Studio\2022\Community\VC\Tools\MSVC\14.37.32822\include\mutex
; Line 78
	mov	ecx, 5
	call	?_Throw_Cpp_error@std@@YAXH@Z		; std::_Throw_Cpp_error
	int	3
$LN24@operator:
; Line 108
	dec	eax
; Line 85
	mov	ecx, 6
; Line 108
	mov	DWORD PTR [rbx+76], eax
; Line 85
	call	?_Throw_Cpp_error@std@@YAXH@Z		; std::_Throw_Cpp_error
	int	3
$LN21@operator:
??$?6$$BY0CM@D@SysMessage@@QEAAAEAV0@AEAY0CM@$$CBD@Z ENDP ; SysMessage::operator<<<char [44]>
_TEXT	ENDS
; Function compile flags: /Ogtpy
;	COMDAT ??$?6$$BY0BN@D@SysMessage@@QEAAAEAV0@AEAY0BN@$$CBD@Z
_TEXT	SEGMENT
this$ = 48
t$ = 56
??$?6$$BY0BN@D@SysMessage@@QEAAAEAV0@AEAY0BN@$$CBD@Z PROC ; SysMessage::operator<<<char [29]>, COMDAT
; File D:\Dev\GitHub\vtools\netcpy\System\Win\SysMessage.h
; Line 81
$LN25:
	mov	QWORD PTR [rsp+8], rbx
	push	rdi
	sub	rsp, 32					; 00000020H
	mov	rdi, rdx
	mov	rbx, rcx
; File C:\Program Files\Microsoft Visual Studio\2022\Community\VC\Tools\MSVC\14.37.32822\include\mutex
; Line 76
	call	_Mtx_lock
	test	eax, eax
	jne	SHORT $LN23@operator
; Line 106
	mov	eax, DWORD PTR [rbx+76]
	cmp	eax, 2147483647				; 7fffffffH
	je	SHORT $LN24@operator
; File D:\Dev\GitHub\vtools\netcpy\System\Win\SysMessage.h
; Line 84
	lea	rcx, QWORD PTR [rbx+88]
	mov	rdx, rdi
	call	??$?6U?$char_traits@D@std@@@std@@YAAEAV?$basic_ostream@DU?$char_traits@D@std@@@0@AEAV10@PEBD@Z ; std::operator<<<std::char_traits<char> >
; File C:\Program Files\Microsoft Visual Studio\2022\Community\VC\Tools\MSVC\14.37.32822\include\mutex
; Line 95
	mov	rcx, rbx
; File D:\Dev\GitHub\vtools\netcpy\System\Win\SysMessage.h
; Line 85
	mov	BYTE PTR [rbx+80], 1
; File C:\Program Files\Microsoft Visual Studio\2022\Community\VC\Tools\MSVC\14.37.32822\include\mutex
; Line 95
	call	_Mtx_unlock
; File D:\Dev\GitHub\vtools\netcpy\System\Win\SysMessage.h
; Line 87
	mov	rax, rbx
; Line 88
	mov	rbx, QWORD PTR [rsp+48]
	add	rsp, 32					; 00000020H
	pop	rdi
	ret	0
$LN23@operator:
; File C:\Program Files\Microsoft Visual Studio\2022\Community\VC\Tools\MSVC\14.37.32822\include\mutex
; Line 78
	mov	ecx, 5
	call	?_Throw_Cpp_error@std@@YAXH@Z		; std::_Throw_Cpp_error
	int	3
$LN24@operator:
; Line 108
	dec	eax
; Line 85
	mov	ecx, 6
; Line 108
	mov	DWORD PTR [rbx+76], eax
; Line 85
	call	?_Throw_Cpp_error@std@@YAXH@Z		; std::_Throw_Cpp_error
	int	3
$LN21@operator:
??$?6$$BY0BN@D@SysMessage@@QEAAAEAV0@AEAY0BN@$$CBD@Z ENDP ; SysMessage::operator<<<char [29]>
_TEXT	ENDS
; Function compile flags: /Ogtpy
;	COMDAT ??$?6$$BY0CG@D@SysMessage@@QEAAAEAV0@AEAY0CG@$$CBD@Z
_TEXT	SEGMENT
this$ = 48
t$ = 56
??$?6$$BY0CG@D@SysMessage@@QEAAAEAV0@AEAY0CG@$$CBD@Z PROC ; SysMessage::operator<<<char [38]>, COMDAT
; File D:\Dev\GitHub\vtools\netcpy\System\Win\SysMessage.h
; Line 81
$LN25:
	mov	QWORD PTR [rsp+8], rbx
	push	rdi
	sub	rsp, 32					; 00000020H
	mov	rdi, rdx
	mov	rbx, rcx
; File C:\Program Files\Microsoft Visual Studio\2022\Community\VC\Tools\MSVC\14.37.32822\include\mutex
; Line 76
	call	_Mtx_lock
	test	eax, eax
	jne	SHORT $LN23@operator
; Line 106
	mov	eax, DWORD PTR [rbx+76]
	cmp	eax, 2147483647				; 7fffffffH
	je	SHORT $LN24@operator
; File D:\Dev\GitHub\vtools\netcpy\System\Win\SysMessage.h
; Line 84
	lea	rcx, QWORD PTR [rbx+88]
	mov	rdx, rdi
	call	??$?6U?$char_traits@D@std@@@std@@YAAEAV?$basic_ostream@DU?$char_traits@D@std@@@0@AEAV10@PEBD@Z ; std::operator<<<std::char_traits<char> >
; File C:\Program Files\Microsoft Visual Studio\2022\Community\VC\Tools\MSVC\14.37.32822\include\mutex
; Line 95
	mov	rcx, rbx
; File D:\Dev\GitHub\vtools\netcpy\System\Win\SysMessage.h
; Line 85
	mov	BYTE PTR [rbx+80], 1
; File C:\Program Files\Microsoft Visual Studio\2022\Community\VC\Tools\MSVC\14.37.32822\include\mutex
; Line 95
	call	_Mtx_unlock
; File D:\Dev\GitHub\vtools\netcpy\System\Win\SysMessage.h
; Line 87
	mov	rax, rbx
; Line 88
	mov	rbx, QWORD PTR [rsp+48]
	add	rsp, 32					; 00000020H
	pop	rdi
	ret	0
$LN23@operator:
; File C:\Program Files\Microsoft Visual Studio\2022\Community\VC\Tools\MSVC\14.37.32822\include\mutex
; Line 78
	mov	ecx, 5
	call	?_Throw_Cpp_error@std@@YAXH@Z		; std::_Throw_Cpp_error
	int	3
$LN24@operator:
; Line 108
	dec	eax
; Line 85
	mov	ecx, 6
; Line 108
	mov	DWORD PTR [rbx+76], eax
; Line 85
	call	?_Throw_Cpp_error@std@@YAXH@Z		; std::_Throw_Cpp_error
	int	3
$LN21@operator:
??$?6$$BY0CG@D@SysMessage@@QEAAAEAV0@AEAY0CG@$$CBD@Z ENDP ; SysMessage::operator<<<char [38]>
_TEXT	ENDS
; Function compile flags: /Ogtpy
;	COMDAT ??$?6$$BY0CB@D@SysMessage@@QEAAAEAV0@AEAY0CB@$$CBD@Z
_TEXT	SEGMENT
this$ = 48
t$dead$ = 56
??$?6$$BY0CB@D@SysMessage@@QEAAAEAV0@AEAY0CB@$$CBD@Z PROC ; SysMessage::operator<<<char [33]>, COMDAT
; File D:\Dev\GitHub\vtools\netcpy\System\Win\SysMessage.h
; Line 81
$LN25:
	push	rbx
	sub	rsp, 32					; 00000020H
	mov	rbx, rcx
; File C:\Program Files\Microsoft Visual Studio\2022\Community\VC\Tools\MSVC\14.37.32822\include\mutex
; Line 76
	call	_Mtx_lock
	test	eax, eax
	jne	SHORT $LN23@operator
; Line 106
	mov	eax, DWORD PTR [rbx+76]
	cmp	eax, 2147483647				; 7fffffffH
	je	SHORT $LN24@operator
; File D:\Dev\GitHub\vtools\netcpy\System\Win\SysMessage.h
; Line 84
	lea	rcx, QWORD PTR [rbx+88]
	lea	rdx, OFFSET FLAT:??_C@_0CB@MAKGFBIM@?$FL0x1036?$FN?5Invalid?5double?5epsilon@
	call	??$?6U?$char_traits@D@std@@@std@@YAAEAV?$basic_ostream@DU?$char_traits@D@std@@@0@AEAV10@PEBD@Z ; std::operator<<<std::char_traits<char> >
; File C:\Program Files\Microsoft Visual Studio\2022\Community\VC\Tools\MSVC\14.37.32822\include\mutex
; Line 95
	mov	rcx, rbx
; File D:\Dev\GitHub\vtools\netcpy\System\Win\SysMessage.h
; Line 85
	mov	BYTE PTR [rbx+80], 1
; File C:\Program Files\Microsoft Visual Studio\2022\Community\VC\Tools\MSVC\14.37.32822\include\mutex
; Line 95
	call	_Mtx_unlock
; File D:\Dev\GitHub\vtools\netcpy\System\Win\SysMessage.h
; Line 87
	mov	rax, rbx
; Line 88
	add	rsp, 32					; 00000020H
	pop	rbx
	ret	0
$LN23@operator:
; File C:\Program Files\Microsoft Visual Studio\2022\Community\VC\Tools\MSVC\14.37.32822\include\mutex
; Line 78
	mov	ecx, 5
	call	?_Throw_Cpp_error@std@@YAXH@Z		; std::_Throw_Cpp_error
	int	3
$LN24@operator:
; Line 108
	dec	eax
; Line 85
	mov	ecx, 6
; Line 108
	mov	DWORD PTR [rbx+76], eax
; Line 85
	call	?_Throw_Cpp_error@std@@YAXH@Z		; std::_Throw_Cpp_error
	int	3
$LN21@operator:
??$?6$$BY0CB@D@SysMessage@@QEAAAEAV0@AEAY0CB@$$CBD@Z ENDP ; SysMessage::operator<<<char [33]>
_TEXT	ENDS
END
