; Listing generated by Microsoft (R) Optimizing Compiler Version 19.37.32822.0 

include listing.inc

INCLUDELIB OLDNAMES

EXTRN	_Init_thread_header:PROC
EXTRN	_Init_thread_footer:PROC
EXTRN	?cerr@std@@3V?$basic_ostream@DU?$char_traits@D@std@@@1@A:BYTE ; std::cerr
EXTRN	_Init_thread_epoch:DWORD
PUBLIC	??1SysMessage@@QEAA@XZ				; SysMessage::~SysMessage
PUBLIC	?__autoclassinit2@SysMessage@@QEAAX_K@Z		; SysMessage::__autoclassinit2
PUBLIC	??0SysMessage@@AEAA@XZ				; SysMessage::SysMessage
PUBLIC	?display@SysMessage@@QEAAXXZ			; SysMessage::display
PUBLIC	?box@SysMessage@@SAAEAV1@XZ			; SysMessage::box
;	COMDAT ?sysmessage@?1??box@SysMessage@@SAAEAV2@XZ@4V2@A
_BSS	SEGMENT
?sysmessage@?1??box@SysMessage@@SAAEAV2@XZ@4V2@A DB 0140H DUP (?) ; `SysMessage::box'::`2'::sysmessage
_BSS	ENDS
;	COMDAT ?$TSS0@?1??box@SysMessage@@SAAEAV2@XZ@4HA
_BSS	SEGMENT
?$TSS0@?1??box@SysMessage@@SAAEAV2@XZ@4HA DD 01H DUP (?) ; `SysMessage::box'::`2'::$TSS0
_BSS	ENDS
;	COMDAT pdata
pdata	SEGMENT
$pdata$??1SysMessage@@QEAA@XZ DD imagerel $LN11
	DD	imagerel $LN11+31
	DD	imagerel $unwind$??1SysMessage@@QEAA@XZ
pdata	ENDS
;	COMDAT pdata
pdata	SEGMENT
$pdata$??__Fsysmessage@?1??box@SysMessage@@SAAEAV1@XZ@YAXXZ DD imagerel ??__Fsysmessage@?1??box@SysMessage@@SAAEAV1@XZ@YAXXZ
	DD	imagerel ??__Fsysmessage@?1??box@SysMessage@@SAAEAV1@XZ@YAXXZ+32
	DD	imagerel $unwind$??__Fsysmessage@?1??box@SysMessage@@SAAEAV1@XZ@YAXXZ
pdata	ENDS
;	COMDAT pdata
pdata	SEGMENT
$pdata$??0SysMessage@@AEAA@XZ DD imagerel $LN11
	DD	imagerel $LN11+52
	DD	imagerel $unwind$??0SysMessage@@AEAA@XZ
pdata	ENDS
;	COMDAT pdata
pdata	SEGMENT
$pdata$?display@SysMessage@@QEAAXXZ DD imagerel $LN110
	DD	imagerel $LN110+366
	DD	imagerel $unwind$?display@SysMessage@@QEAAXXZ
pdata	ENDS
;	COMDAT pdata
pdata	SEGMENT
$pdata$?box@SysMessage@@SAAEAV1@XZ DD imagerel $LN21
	DD	imagerel $LN21+140
	DD	imagerel $unwind$?box@SysMessage@@SAAEAV1@XZ
pdata	ENDS
;	COMDAT xdata
xdata	SEGMENT
$unwind$?box@SysMessage@@SAAEAV1@XZ DD 020601H
	DD	030023206H
xdata	ENDS
;	COMDAT xdata
xdata	SEGMENT
$unwind$?display@SysMessage@@QEAAXXZ DD 020601H
	DD	03002b206H
xdata	ENDS
;	COMDAT xdata
xdata	SEGMENT
$unwind$??0SysMessage@@AEAA@XZ DD 010401H
	DD	04204H
xdata	ENDS
;	COMDAT xdata
xdata	SEGMENT
$unwind$??__Fsysmessage@?1??box@SysMessage@@SAAEAV1@XZ@YAXXZ DD 010401H
	DD	04204H
xdata	ENDS
;	COMDAT xdata
xdata	SEGMENT
$unwind$??1SysMessage@@QEAA@XZ DD 020601H
	DD	030023206H
; Function compile flags: /Ogtpy
;	COMDAT ?box@SysMessage@@SAAEAV1@XZ
_TEXT	SEGMENT
?box@SysMessage@@SAAEAV1@XZ PROC			; SysMessage::box, COMDAT
; File D:\Dev\GitHub\vtools\netcpy\System\Win\SysMessage.cpp
; Line 75
$LN21:
	push	rbx
	sub	rsp, 32					; 00000020H
; Line 76
	mov	rax, QWORD PTR gs:88
	mov	ecx, OFFSET FLAT:_Init_thread_epoch
	mov	rax, QWORD PTR [rax]
	mov	eax, DWORD PTR [rcx+rax]
	cmp	DWORD PTR ?$TSS0@?1??box@SysMessage@@SAAEAV2@XZ@4HA, eax
	jg	SHORT $LN19@box
$LN14@box:
; Line 78
	lea	rax, OFFSET FLAT:?sysmessage@?1??box@SysMessage@@SAAEAV2@XZ@4V2@A
	add	rsp, 32					; 00000020H
	pop	rbx
	ret	0
$LN19@box:
; Line 76
	lea	rcx, OFFSET FLAT:?$TSS0@?1??box@SysMessage@@SAAEAV2@XZ@4HA
	call	_Init_thread_header
	cmp	DWORD PTR ?$TSS0@?1??box@SysMessage@@SAAEAV2@XZ@4HA, -1
	jne	SHORT $LN14@box
; File C:\Program Files\Microsoft Visual Studio\2022\Community\VC\Tools\MSVC\14.37.32822\include\mutex
; Line 65
	lea	rbx, OFFSET FLAT:?sysmessage@?1??box@SysMessage@@SAAEAV2@XZ@4V2@A
	mov	edx, 2
	mov	rcx, rbx
	call	_Mtx_init_in_situ
; File D:\Dev\GitHub\vtools\netcpy\System\Win\SysMessage.cpp
; Line 51
	lea	rcx, OFFSET FLAT:?sysmessage@?1??box@SysMessage@@SAAEAV2@XZ@4V2@A+88
	mov	BYTE PTR ?sysmessage@?1??box@SysMessage@@SAAEAV2@XZ@4V2@A+80, 0
	call	??0?$basic_ostringstream@DU?$char_traits@D@std@@V?$allocator@D@2@@std@@QEAA@XZ ; std::basic_ostringstream<char,std::char_traits<char>,std::allocator<char> >::basic_ostringstream<char,std::char_traits<char>,std::allocator<char> >
; Line 76
	lea	rcx, OFFSET FLAT:??__Fsysmessage@?1??box@SysMessage@@SAAEAV1@XZ@YAXXZ ; `SysMessage::box'::`2'::`dynamic atexit destructor for 'sysmessage''
	call	atexit
	lea	rcx, OFFSET FLAT:?$TSS0@?1??box@SysMessage@@SAAEAV2@XZ@4HA
	call	_Init_thread_footer
; Line 77
	mov	rax, rbx
; Line 78
	add	rsp, 32					; 00000020H
	pop	rbx
	ret	0
?box@SysMessage@@SAAEAV1@XZ ENDP			; SysMessage::box
_TEXT	ENDS
; Function compile flags: /Ogtpy
;	COMDAT ?display@SysMessage@@QEAAXXZ
_TEXT	SEGMENT
$T1 = 32
_View$2 = 64
this$ = 112
?display@SysMessage@@QEAAXXZ PROC			; SysMessage::display, COMDAT
; File D:\Dev\GitHub\vtools\netcpy\System\Win\SysMessage.cpp
; Line 60
$LN110:
	push	rbx
	sub	rsp, 96					; 00000060H
	mov	rbx, rcx
; File C:\Program Files\Microsoft Visual Studio\2022\Community\VC\Tools\MSVC\14.37.32822\include\mutex
; Line 76
	call	_Mtx_lock
	test	eax, eax
	jne	$LN106@display
; Line 106
	mov	eax, DWORD PTR [rbx+76]
	cmp	eax, 2147483647				; 7fffffffH
	je	$LN107@display
; File D:\Dev\GitHub\vtools\netcpy\System\Win\SysMessage.cpp
; Line 62
	cmp	BYTE PTR [rbx+80], 0
	je	$LN2@display
; File C:\Program Files\Microsoft Visual Studio\2022\Community\VC\Tools\MSVC\14.37.32822\include\sstream
; Line 134
	mov	ecx, DWORD PTR [rbx+208]
; File C:\Program Files\Microsoft Visual Studio\2022\Community\VC\Tools\MSVC\14.37.32822\include\xstring
; Line 4821
	xor	r9d, r9d
	xorps	xmm0, xmm0
	mov	QWORD PTR $T1[rsp+16], r9
	mov	eax, ecx
; Line 4822
	mov	r10d, 15
	and	al, 34					; 00000022H
	mov	QWORD PTR $T1[rsp+24], r10
; Line 2284
	movups	XMMWORD PTR $T1[rsp], xmm0
; Line 4826
	mov	BYTE PTR $T1[rsp], r9b
; File C:\Program Files\Microsoft Visual Studio\2022\Community\VC\Tools\MSVC\14.37.32822\include\sstream
; Line 133
	movups	XMMWORD PTR _View$2[rsp], xmm0
; Line 134
	cmp	al, 2
	je	SHORT $LN31@display
; File C:\Program Files\Microsoft Visual Studio\2022\Community\VC\Tools\MSVC\14.37.32822\include\streambuf
; Line 193
	mov	rax, QWORD PTR [rbx+160]
; File C:\Program Files\Microsoft Visual Studio\2022\Community\VC\Tools\MSVC\14.37.32822\include\sstream
; Line 134
	mov	r8, QWORD PTR [rax]
	test	r8, r8
	je	SHORT $LN31@display
; File C:\Program Files\Microsoft Visual Studio\2022\Community\VC\Tools\MSVC\14.37.32822\include\streambuf
; Line 189
	mov	rax, QWORD PTR [rbx+128]
	mov	rdx, QWORD PTR [rax]
; File C:\Program Files\Microsoft Visual Studio\2022\Community\VC\Tools\MSVC\14.37.32822\include\utility
; Line 47
	mov	rax, QWORD PTR [rbx+200]
	cmp	r8, rax
	cmovb	r8, rax
; File C:\Program Files\Microsoft Visual Studio\2022\Community\VC\Tools\MSVC\14.37.32822\include\sstream
; Line 138
	sub	r8, rdx
; Line 139
	jmp	SHORT $LN34@display
$LN31@display:
; Line 140
	test	cl, 4
	jne	SHORT $LN92@display
; File C:\Program Files\Microsoft Visual Studio\2022\Community\VC\Tools\MSVC\14.37.32822\include\streambuf
; Line 185
	mov	rax, QWORD PTR [rbx+152]
; File C:\Program Files\Microsoft Visual Studio\2022\Community\VC\Tools\MSVC\14.37.32822\include\sstream
; Line 140
	mov	rcx, QWORD PTR [rax]
	test	rcx, rcx
	je	SHORT $LN92@display
; File C:\Program Files\Microsoft Visual Studio\2022\Community\VC\Tools\MSVC\14.37.32822\include\streambuf
; Line 181
	mov	rax, QWORD PTR [rbx+120]
	mov	rdx, QWORD PTR [rax]
; Line 197
	mov	rax, QWORD PTR [rbx+176]
	movsxd	r8, DWORD PTR [rax]
	sub	r8, rdx
	add	r8, rcx
; File C:\Program Files\Microsoft Visual Studio\2022\Community\VC\Tools\MSVC\14.37.32822\include\sstream
; Line 140
	jmp	SHORT $LN34@display
$LN92@display:
	mov	r8, QWORD PTR _View$2[rsp+8]
	mov	rdx, QWORD PTR _View$2[rsp]
$LN34@display:
; Line 158
	test	rdx, rdx
	je	SHORT $LN18@display
; Line 159
	lea	rcx, QWORD PTR $T1[rsp]
	call	?assign@?$basic_string@DU?$char_traits@D@std@@V?$allocator@D@2@@std@@QEAAAEAV12@QEBD_K@Z ; std::basic_string<char,std::char_traits<char>,std::allocator<char> >::assign
	mov	r10, QWORD PTR $T1[rsp+24]
	mov	r9, QWORD PTR $T1[rsp+16]
$LN18@display:
; File C:\Program Files\Microsoft Visual Studio\2022\Community\VC\Tools\MSVC\14.37.32822\include\xstring
; Line 2244
	cmp	r10, 16
; Line 2235
	lea	rdx, QWORD PTR $T1[rsp]
; Line 5187
	mov	r8, r9
	lea	rcx, OFFSET FLAT:?cerr@std@@3V?$basic_ostream@DU?$char_traits@D@std@@@1@A ; std::cerr
; Line 2236
	cmovae	rdx, QWORD PTR $T1[rsp]
; Line 5187
	call	??$_Insert_string@DU?$char_traits@D@std@@_K@std@@YAAEAV?$basic_ostream@DU?$char_traits@D@std@@@0@AEAV10@QEBD_K@Z ; std::_Insert_string<char,std::char_traits<char>,unsigned __int64>
; Line 2244
	mov	rdx, QWORD PTR $T1[rsp+24]
	cmp	rdx, 16
; Line 4832
	jb	SHORT $LN83@display
; File C:\Program Files\Microsoft Visual Studio\2022\Community\VC\Tools\MSVC\14.37.32822\include\xmemory
; Line 969
	mov	rcx, QWORD PTR $T1[rsp]
; File C:\Program Files\Microsoft Visual Studio\2022\Community\VC\Tools\MSVC\14.37.32822\include\xstring
; Line 4838
	inc	rdx
; File C:\Program Files\Microsoft Visual Studio\2022\Community\VC\Tools\MSVC\14.37.32822\include\xmemory
; Line 969
	mov	rax, rcx
; Line 261
	cmp	rdx, 4096				; 00001000H
	jb	SHORT $LN82@display
; Line 160
	mov	rcx, QWORD PTR [rcx-8]
	add	rdx, 39					; 00000027H
	sub	rax, rcx
; Line 174
	add	rax, -8
	cmp	rax, 31
	ja	SHORT $LN108@display
$LN82@display:
; Line 265
	call	??3@YAXPEAX_K@Z				; operator delete
$LN83@display:
; File D:\Dev\GitHub\vtools\netcpy\System\Win\SysMessage.cpp
; Line 65
	lea	rcx, OFFSET FLAT:?cerr@std@@3V?$basic_ostream@DU?$char_traits@D@std@@@1@A ; std::cerr
	call	??$?6U?$char_traits@D@std@@@std@@YAAEAV?$basic_ostream@DU?$char_traits@D@std@@@0@AEAV10@D@Z ; std::operator<<<std::char_traits<char> >
$LN2@display:
; File C:\Program Files\Microsoft Visual Studio\2022\Community\VC\Tools\MSVC\14.37.32822\include\mutex
; Line 95
	mov	rcx, rbx
; File D:\Dev\GitHub\vtools\netcpy\System\Win\SysMessage.cpp
; Line 68
	add	rsp, 96					; 00000060H
	pop	rbx
; File C:\Program Files\Microsoft Visual Studio\2022\Community\VC\Tools\MSVC\14.37.32822\include\mutex
; Line 95
	jmp	_Mtx_unlock
$LN108@display:
; File C:\Program Files\Microsoft Visual Studio\2022\Community\VC\Tools\MSVC\14.37.32822\include\xmemory
; Line 174
	call	_invalid_parameter_noinfo_noreturn
	int	3
$LN106@display:
; File C:\Program Files\Microsoft Visual Studio\2022\Community\VC\Tools\MSVC\14.37.32822\include\mutex
; Line 78
	mov	ecx, 5
	call	?_Throw_Cpp_error@std@@YAXH@Z		; std::_Throw_Cpp_error
	int	3
$LN107@display:
; Line 108
	dec	eax
; Line 85
	mov	ecx, 6
; Line 108
	mov	DWORD PTR [rbx+76], eax
; Line 85
	call	?_Throw_Cpp_error@std@@YAXH@Z		; std::_Throw_Cpp_error
	int	3
$LN104@display:
?display@SysMessage@@QEAAXXZ ENDP			; SysMessage::display
_TEXT	ENDS
; Function compile flags: /Ogtpy
;	COMDAT ??0SysMessage@@AEAA@XZ
_TEXT	SEGMENT
this$dead$ = 48
??0SysMessage@@AEAA@XZ PROC				; SysMessage::SysMessage, COMDAT
; File D:\Dev\GitHub\vtools\netcpy\System\Win\SysMessage.cpp
; Line 52
$LN11:
	sub	rsp, 40					; 00000028H
; File C:\Program Files\Microsoft Visual Studio\2022\Community\VC\Tools\MSVC\14.37.32822\include\mutex
; Line 65
	mov	edx, 2
	lea	rcx, OFFSET FLAT:?sysmessage@?1??box@SysMessage@@SAAEAV2@XZ@4V2@A
	call	_Mtx_init_in_situ
; File D:\Dev\GitHub\vtools\netcpy\System\Win\SysMessage.cpp
; Line 51
	lea	rcx, OFFSET FLAT:?sysmessage@?1??box@SysMessage@@SAAEAV2@XZ@4V2@A+88
	mov	BYTE PTR ?sysmessage@?1??box@SysMessage@@SAAEAV2@XZ@4V2@A+80, 0
	call	??0?$basic_ostringstream@DU?$char_traits@D@std@@V?$allocator@D@2@@std@@QEAA@XZ ; std::basic_ostringstream<char,std::char_traits<char>,std::allocator<char> >::basic_ostringstream<char,std::char_traits<char>,std::allocator<char> >
; Line 54
	lea	rax, OFFSET FLAT:?sysmessage@?1??box@SysMessage@@SAAEAV2@XZ@4V2@A
	add	rsp, 40					; 00000028H
	ret	0
??0SysMessage@@AEAA@XZ ENDP				; SysMessage::SysMessage
_TEXT	ENDS
; Function compile flags: /Ogtpy
;	COMDAT ??__Fsysmessage@?1??box@SysMessage@@SAAEAV1@XZ@YAXXZ
text$yd	SEGMENT
??__Fsysmessage@?1??box@SysMessage@@SAAEAV1@XZ@YAXXZ PROC ; `SysMessage::box'::`2'::`dynamic atexit destructor for 'sysmessage'', COMDAT
	sub	rsp, 40					; 00000028H
	lea	rcx, OFFSET FLAT:?sysmessage@?1??box@SysMessage@@SAAEAV2@XZ@4V2@A+88
	call	??_D?$basic_ostringstream@DU?$char_traits@D@std@@V?$allocator@D@2@@std@@QEAAXXZ
; File C:\Program Files\Microsoft Visual Studio\2022\Community\VC\Tools\MSVC\14.37.32822\include\mutex
; Line 69
	lea	rcx, OFFSET FLAT:?sysmessage@?1??box@SysMessage@@SAAEAV2@XZ@4V2@A
	add	rsp, 40					; 00000028H
	jmp	_Mtx_destroy_in_situ
??__Fsysmessage@?1??box@SysMessage@@SAAEAV1@XZ@YAXXZ ENDP ; `SysMessage::box'::`2'::`dynamic atexit destructor for 'sysmessage''
text$yd	ENDS
; Function compile flags: /Ogtpy
;	COMDAT ?__autoclassinit2@SysMessage@@QEAAX_K@Z
_TEXT	SEGMENT
this$dead$ = 8
classSize$dead$ = 16
?__autoclassinit2@SysMessage@@QEAAX_K@Z PROC		; SysMessage::__autoclassinit2, COMDAT
	xor	edx, edx
	lea	rcx, OFFSET FLAT:?sysmessage@?1??box@SysMessage@@SAAEAV2@XZ@4V2@A
	mov	r8d, 320				; 00000140H
	jmp	memset
?__autoclassinit2@SysMessage@@QEAAX_K@Z ENDP		; SysMessage::__autoclassinit2
_TEXT	ENDS
; Function compile flags: /Ogtpy
;	COMDAT ??1SysMessage@@QEAA@XZ
_TEXT	SEGMENT
this$ = 48
??1SysMessage@@QEAA@XZ PROC				; SysMessage::~SysMessage, COMDAT
$LN11:
	push	rbx
	sub	rsp, 32					; 00000020H
	mov	rbx, rcx
	add	rcx, 88					; 00000058H
	call	??_D?$basic_ostringstream@DU?$char_traits@D@std@@V?$allocator@D@2@@std@@QEAAXXZ
; File C:\Program Files\Microsoft Visual Studio\2022\Community\VC\Tools\MSVC\14.37.32822\include\mutex
; Line 69
	mov	rcx, rbx
	add	rsp, 32					; 00000020H
	pop	rbx
	jmp	_Mtx_destroy_in_situ
??1SysMessage@@QEAA@XZ ENDP				; SysMessage::~SysMessage
_TEXT	ENDS
END
